
========================================================================

** ELF Header Information

    File Name: ..\OBJ\watcher.axf

    Machine class: ELFCLASS32 (32-bit)
    Data encoding: ELFDATA2LSB (Little endian)
    Header version: EV_CURRENT (Current version)
    Operating System ABI: none
    ABI Version: 0
    File Type: ET_EXEC (Executable) (2)
    Machine: EM_ARM (ARM)

    Image Entry point: 0x08000131
    Flags: EF_ARM_HASENTRY + EF_ARM_ABI_FLOAT_SOFT (0x05000202)

    ARM ELF revision: 5 (ABI version 2)

    Conforms to Soft float procedure-call standard

    Built with
    Component: ARM Compiler 5.06 update 6 (build 750) Tool: armasm [4d35ec]
    Component: ARM Compiler 5.06 update 6 (build 750) Tool: armlink [4d35ed]

    Header size: 52 bytes (0x34)
    Program header entry size: 32 bytes (0x20)
    Section header entry size: 40 bytes (0x28)

    Program header entries: 1
    Section header entries: 16

    Program header offset: 404440 (0x00062bd8)
    Section header offset: 404472 (0x00062bf8)

    Section header string table index: 15

========================================================================

** Program header #0 (PT_LOAD) [PF_X + PF_W + PF_R + PF_ARM_ENTRY]
    Size : 29704 bytes (15160 bytes in file)
    Virtual address: 0x08000000 (Alignment 8)


========================================================================

** Section #1 'ER_IROM1' (SHT_PROGBITS) [SHF_ALLOC + SHF_EXECINSTR]
    Size   : 15072 bytes (alignment 4)
    Address: 0x08000000

    $d.realdata
    RESET
    __Vectors
        0x08000000:    20003928    (9.     DCD    536885544
        0x08000004:    0800027d    }...    DCD    134218365
        0x08000008:    080020f1    . ..    DCD    134226161
        0x0800000c:    0800209d    . ..    DCD    134226077
        0x08000010:    080020ed    . ..    DCD    134226157
        0x08000014:    08001c13    ....    DCD    134224915
        0x08000018:    08002c6b    k,..    DCD    134229099
        0x0800001c:    00000000    ....    DCD    0
        0x08000020:    00000000    ....    DCD    0
        0x08000024:    00000000    ....    DCD    0
        0x08000028:    00000000    ....    DCD    0
        0x0800002c:    08002465    e$..    DCD    134227045
        0x08000030:    08001e31    1...    DCD    134225457
        0x08000034:    00000000    ....    DCD    0
        0x08000038:    08002179    y!..    DCD    134226297
        0x0800003c:    08002579    y%..    DCD    134227321
        0x08000040:    08000297    ....    DCD    134218391
        0x08000044:    08000297    ....    DCD    134218391
        0x08000048:    08000297    ....    DCD    134218391
        0x0800004c:    08000297    ....    DCD    134218391
        0x08000050:    08000297    ....    DCD    134218391
        0x08000054:    08000297    ....    DCD    134218391
        0x08000058:    08001e35    5...    DCD    134225461
        0x0800005c:    08000297    ....    DCD    134218391
        0x08000060:    08000297    ....    DCD    134218391
        0x08000064:    08001e69    i...    DCD    134225513
        0x08000068:    08001e9d    ....    DCD    134225565
        0x0800006c:    08000297    ....    DCD    134218391
        0x08000070:    08000297    ....    DCD    134218391
        0x08000074:    08000297    ....    DCD    134218391
        0x08000078:    08000297    ....    DCD    134218391
        0x0800007c:    08000297    ....    DCD    134218391
        0x08000080:    08000297    ....    DCD    134218391
        0x08000084:    08000297    ....    DCD    134218391
        0x08000088:    08000297    ....    DCD    134218391
        0x0800008c:    08000297    ....    DCD    134218391
        0x08000090:    08000297    ....    DCD    134218391
        0x08000094:    08000297    ....    DCD    134218391
        0x08000098:    08000297    ....    DCD    134218391
        0x0800009c:    08001ed1    ....    DCD    134225617
        0x080000a0:    08000297    ....    DCD    134218391
        0x080000a4:    08000297    ....    DCD    134218391
        0x080000a8:    08000297    ....    DCD    134218391
        0x080000ac:    08000297    ....    DCD    134218391
        0x080000b0:    08000297    ....    DCD    134218391
        0x080000b4:    080025dd    .%..    DCD    134227421
        0x080000b8:    08000297    ....    DCD    134218391
        0x080000bc:    08000297    ....    DCD    134218391
        0x080000c0:    08000297    ....    DCD    134218391
        0x080000c4:    08000297    ....    DCD    134218391
        0x080000c8:    08000297    ....    DCD    134218391
        0x080000cc:    08000297    ....    DCD    134218391
        0x080000d0:    08000297    ....    DCD    134218391
        0x080000d4:    080028d5    .(..    DCD    134228181
        0x080000d8:    08000297    ....    DCD    134218391
        0x080000dc:    0800295d    ])..    DCD    134228317
        0x080000e0:    08000297    ....    DCD    134218391
        0x080000e4:    08000297    ....    DCD    134218391
        0x080000e8:    08000297    ....    DCD    134218391
        0x080000ec:    08000297    ....    DCD    134218391
        0x080000f0:    08000297    ....    DCD    134218391
        0x080000f4:    08000297    ....    DCD    134218391
        0x080000f8:    08000297    ....    DCD    134218391
        0x080000fc:    08000297    ....    DCD    134218391
        0x08000100:    08000297    ....    DCD    134218391
        0x08000104:    080022f5    ."..    DCD    134226677
        0x08000108:    0800260d    .&..    DCD    134227469
        0x0800010c:    08000297    ....    DCD    134218391
        0x08000110:    08000297    ....    DCD    134218391
        0x08000114:    08000297    ....    DCD    134218391
        0x08000118:    080026cd    .&..    DCD    134227661
        0x0800011c:    08002705    .'..    DCD    134227717
        0x08000120:    08000297    ....    DCD    134218391
        0x08000124:    08000297    ....    DCD    134218391
        0x08000128:    08000297    ....    DCD    134218391
        0x0800012c:    08000297    ....    DCD    134218391
    $t
    !!!main
    __Vectors_End
    __main
        0x08000130:    f000f802    ....    BL       __scatterload ; 0x8000138
        0x08000134:    f000f890    ....    BL       __rt_entry ; 0x8000258
    !!!scatter
    __scatterload
    __scatterload_rt2
    __scatterload_rt2_thumb_only
        0x08000138:    a00a        ..      ADR      r0,{pc}+0x2c ; 0x8000164
        0x0800013a:    e8900c00    ....    LDM      r0,{r10,r11}
        0x0800013e:    4482        .D      ADD      r10,r10,r0
        0x08000140:    4483        .D      ADD      r11,r11,r0
        0x08000142:    f1aa0701    ....    SUB      r7,r10,#1
    __scatterload_null
        0x08000146:    45da        .E      CMP      r10,r11
        0x08000148:    d101        ..      BNE      0x800014e ; __scatterload_null + 8
        0x0800014a:    f000f885    ....    BL       __rt_entry ; 0x8000258
        0x0800014e:    f2af0e09    ....    ADR      lr,{pc}-7 ; 0x8000147
        0x08000152:    e8ba000f    ....    LDM      r10!,{r0-r3}
        0x08000156:    f0130f01    ....    TST      r3,#1
        0x0800015a:    bf18        ..      IT       NE
        0x0800015c:    1afb        ..      SUBNE    r3,r7,r3
        0x0800015e:    f0430301    C...    ORR      r3,r3,#1
        0x08000162:    4718        .G      BX       r3
    $d
        0x08000164:    00003830    08..    DCD    14384
        0x08000168:    00003850    P8..    DCD    14416
    $t
    !!handler_copy
    __scatterload_copy
        0x0800016c:    3a10        .:      SUBS     r2,r2,#0x10
        0x0800016e:    bf24        $.      ITT      CS
        0x08000170:    c878        x.      LDMCS    r0!,{r3-r6}
        0x08000172:    c178        x.      STMCS    r1!,{r3-r6}
        0x08000174:    d8fa        ..      BHI      __scatterload_copy ; 0x800016c
        0x08000176:    0752        R.      LSLS     r2,r2,#29
        0x08000178:    bf24        $.      ITT      CS
        0x0800017a:    c830        0.      LDMCS    r0!,{r4,r5}
        0x0800017c:    c130        0.      STMCS    r1!,{r4,r5}
        0x0800017e:    bf44        D.      ITT      MI
        0x08000180:    6804        .h      LDRMI    r4,[r0,#0]
        0x08000182:    600c        .`      STRMI    r4,[r1,#0]
        0x08000184:    4770        pG      BX       lr
        0x08000186:    0000        ..      MOVS     r0,r0
    !!handler_zi
    __scatterload_zeroinit
        0x08000188:    2300        .#      MOVS     r3,#0
        0x0800018a:    2400        .$      MOVS     r4,#0
        0x0800018c:    2500        .%      MOVS     r5,#0
        0x0800018e:    2600        .&      MOVS     r6,#0
        0x08000190:    3a10        .:      SUBS     r2,r2,#0x10
        0x08000192:    bf28        (.      IT       CS
        0x08000194:    c178        x.      STMCS    r1!,{r3-r6}
        0x08000196:    d8fb        ..      BHI      0x8000190 ; __scatterload_zeroinit + 8
        0x08000198:    0752        R.      LSLS     r2,r2,#29
        0x0800019a:    bf28        (.      IT       CS
        0x0800019c:    c130        0.      STMCS    r1!,{r4,r5}
        0x0800019e:    bf48        H.      IT       MI
        0x080001a0:    600b        .`      STRMI    r3,[r1,#0]
        0x080001a2:    4770        pG      BX       lr
    .ARM.Collect$$_printf_percent$$00000000
    .ARM.Collect$$_printf_percent$$00000001
    _printf_n
    _printf_percent
        0x080001a4:    296e        n)      CMP      r1,#0x6e
        0x080001a6:    f00082b0    ....    BEQ.W    _printf_charcount ; 0x800070a
    .ARM.Collect$$_printf_percent$$00000002
    _printf_p
        0x080001aa:    2970        p)      CMP      r1,#0x70
        0x080001ac:    f000841b    ....    BEQ.W    _printf_hex_ptr ; 0x80009e6
    .ARM.Collect$$_printf_percent$$00000003
    _printf_f
        0x080001b0:    2966        f)      CMP      r1,#0x66
        0x080001b2:    f003836b    ..k.    BEQ.W    _printf_fp_dec ; 0x800388c
    .ARM.Collect$$_printf_percent$$00000004
    _printf_e
        0x080001b6:    2965        e)      CMP      r1,#0x65
        0x080001b8:    f0038368    ..h.    BEQ.W    _printf_fp_dec ; 0x800388c
    .ARM.Collect$$_printf_percent$$00000005
    _printf_g
        0x080001bc:    2967        g)      CMP      r1,#0x67
        0x080001be:    f0038365    ..e.    BEQ.W    _printf_fp_dec ; 0x800388c
    .ARM.Collect$$_printf_percent$$00000006
    _printf_a
        0x080001c2:    2961        a)      CMP      r1,#0x61
        0x080001c4:    f0038364    ..d.    BEQ.W    _printf_fp_hex ; 0x8003890
    .ARM.Collect$$_printf_percent$$00000007
    _printf_ll
        0x080001c8:    6803        .h      LDR      r3,[r0,#0]
        0x080001ca:    0a1b        ..      LSRS     r3,r3,#8
        0x080001cc:    bf28        (.      IT       CS
        0x080001ce:    f0410180    A...    ORRCS    r1,r1,#0x80
    .ARM.Collect$$_printf_percent$$00000008
    _printf_i
        0x080001d2:    2969        i)      CMP      r1,#0x69
        0x080001d4:    f00080d2    ....    BEQ.W    _printf_int_dec ; 0x800037c
    .ARM.Collect$$_printf_percent$$00000009
    _printf_d
        0x080001d8:    2964        d)      CMP      r1,#0x64
        0x080001da:    f00080cf    ....    BEQ.W    _printf_int_dec ; 0x800037c
    .ARM.Collect$$_printf_percent$$0000000A
    _printf_u
        0x080001de:    2975        u)      CMP      r1,#0x75
        0x080001e0:    f00080cc    ....    BEQ.W    _printf_int_dec ; 0x800037c
    .ARM.Collect$$_printf_percent$$0000000B
    _printf_o
        0x080001e4:    296f        o)      CMP      r1,#0x6f
        0x080001e6:    f00083a8    ....    BEQ.W    _printf_int_oct ; 0x800093a
    .ARM.Collect$$_printf_percent$$0000000C
    _printf_x
        0x080001ea:    2978        x)      CMP      r1,#0x78
        0x080001ec:    f00083e7    ....    BEQ.W    _printf_int_hex ; 0x80009be
    .ARM.Collect$$_printf_percent$$0000000D
    _printf_lli
        0x080001f0:    29e9        .)      CMP      r1,#0xe9
        0x080001f2:    f0008343    ..C.    BEQ.W    _printf_longlong_dec ; 0x800087c
    .ARM.Collect$$_printf_percent$$0000000E
    _printf_lld
        0x080001f6:    29e4        .)      CMP      r1,#0xe4
        0x080001f8:    f0008340    ..@.    BEQ.W    _printf_longlong_dec ; 0x800087c
    .ARM.Collect$$_printf_percent$$0000000F
    _printf_llu
        0x080001fc:    29f5        .)      CMP      r1,#0xf5
        0x080001fe:    f000833d    ..=.    BEQ.W    _printf_longlong_dec ; 0x800087c
    .ARM.Collect$$_printf_percent$$00000010
    _printf_llo
        0x08000202:    29ef        .)      CMP      r1,#0xef
        0x08000204:    f00083a5    ....    BEQ.W    _printf_ll_oct ; 0x8000952
    .ARM.Collect$$_printf_percent$$00000011
    _printf_llx
        0x08000208:    29f8        .)      CMP      r1,#0xf8
        0x0800020a:    f00083e6    ....    BEQ.W    _printf_ll_hex ; 0x80009da
    .ARM.Collect$$_printf_percent$$00000012
    _printf_l
        0x0800020e:    6803        .h      LDR      r3,[r0,#0]
        0x08000210:    09db        ..      LSRS     r3,r3,#7
        0x08000212:    bf28        (.      IT       CS
        0x08000214:    f0410180    A...    ORRCS    r1,r1,#0x80
    .ARM.Collect$$_printf_percent$$00000013
    _printf_c
        0x08000218:    2963        c)      CMP      r1,#0x63
        0x0800021a:    f00082b2    ....    BEQ.W    _printf_char ; 0x8000782
    .ARM.Collect$$_printf_percent$$00000014
    _printf_s
        0x0800021e:    2973        s)      CMP      r1,#0x73
        0x08000220:    f00082b7    ....    BEQ.W    _printf_string ; 0x8000792
    .ARM.Collect$$_printf_percent$$00000015
    _printf_lc
        0x08000224:    29e3        .)      CMP      r1,#0xe3
        0x08000226:    f00087c5    ....    BEQ.W    _printf_wchar ; 0x80011b4
    .ARM.Collect$$_printf_percent$$00000016
    _printf_ls
        0x0800022a:    29f3        .)      CMP      r1,#0xf3
        0x0800022c:    f00087ca    ....    BEQ.W    _printf_wstring ; 0x80011c4
    .ARM.Collect$$_printf_percent$$00000017
    _printf_percent_end
        0x08000230:    2000        .       MOVS     r0,#0
        0x08000232:    4770        pG      BX       lr
    .ARM.Collect$$libinit$$00000000
    __rt_lib_init
        0x08000234:    b51f        ..      PUSH     {r0-r4,lr}
    .ARM.Collect$$libinit$$00000002
    .ARM.Collect$$libinit$$00000004
    .ARM.Collect$$libinit$$0000000A
    .ARM.Collect$$libinit$$0000000C
    .ARM.Collect$$libinit$$0000000E
    .ARM.Collect$$libinit$$0000000F
    __rt_lib_init_fp_1
    __rt_lib_init_heap_1
    __rt_lib_init_lc_common
    __rt_lib_init_preinit_1
    __rt_lib_init_rand_1
    __rt_lib_init_user_alloc_1
        0x08000236:    f001f81b    ....    BL       __rt_locale ; 0x8001270
        0x0800023a:    0004        ..      MOVS     r4,r0
    .ARM.Collect$$libinit$$00000011
    .ARM.Collect$$libinit$$00000012
    __rt_lib_init_lc_collate_1
    __rt_lib_init_lc_ctype_2
        0x0800023c:    2000        .       MOVS     r0,#0
        0x0800023e:    2100        .!      MOVS     r1,#0
        0x08000240:    f003fb0e    ....    BL       _get_lc_ctype ; 0x8003860
        0x08000244:    1c40        @.      ADDS     r0,r0,#1
        0x08000246:    6060        ``      STR      r0,[r4,#4]
    .ARM.Collect$$libinit$$00000013
    .ARM.Collect$$libinit$$00000015
    .ARM.Collect$$libinit$$00000016
    __rt_lib_init_lc_ctype_1
    __rt_lib_init_lc_monetary_1
    __rt_lib_init_lc_numeric_2
        0x08000248:    2000        .       MOVS     r0,#0
        0x0800024a:    2100        .!      MOVS     r1,#0
        0x0800024c:    f003faf2    ....    BL       _get_lc_numeric ; 0x8003834
        0x08000250:    60e0        .`      STR      r0,[r4,#0xc]
    .ARM.Collect$$libinit$$00000017
    .ARM.Collect$$libinit$$00000019
    .ARM.Collect$$libinit$$0000001B
    .ARM.Collect$$libinit$$0000001D
    .ARM.Collect$$libinit$$0000001F
    .ARM.Collect$$libinit$$00000021
    .ARM.Collect$$libinit$$00000023
    .ARM.Collect$$libinit$$00000025
    .ARM.Collect$$libinit$$0000002C
    .ARM.Collect$$libinit$$0000002E
    .ARM.Collect$$libinit$$00000030
    .ARM.Collect$$libinit$$00000032
    .ARM.Collect$$libinit$$00000033
    __rt_lib_init_alloca_1
    __rt_lib_init_argv_1
    __rt_lib_init_atexit_1
    __rt_lib_init_clock_1
    __rt_lib_init_cpp_1
    __rt_lib_init_exceptions_1
    __rt_lib_init_fp_trap_1
    __rt_lib_init_getenv_1
    __rt_lib_init_lc_numeric_1
    __rt_lib_init_lc_time_1
    __rt_lib_init_return
    __rt_lib_init_signal_1
    __rt_lib_init_stdio_1
        0x08000252:    bd1f        ..      POP      {r0-r4,pc}
    .ARM.Collect$$libshutdown$$00000000
    __rt_lib_shutdown
        0x08000254:    b510        ..      PUSH     {r4,lr}
    .ARM.Collect$$libshutdown$$00000002
    .ARM.Collect$$libshutdown$$00000004
    .ARM.Collect$$libshutdown$$00000007
    .ARM.Collect$$libshutdown$$0000000A
    .ARM.Collect$$libshutdown$$0000000C
    .ARM.Collect$$libshutdown$$0000000F
    .ARM.Collect$$libshutdown$$00000010
    __rt_lib_shutdown_cpp_1
    __rt_lib_shutdown_fp_trap_1
    __rt_lib_shutdown_heap_1
    __rt_lib_shutdown_return
    __rt_lib_shutdown_signal_1
    __rt_lib_shutdown_stdio_1
    __rt_lib_shutdown_user_alloc_1
        0x08000256:    bd10        ..      POP      {r4,pc}
    .ARM.Collect$$rtentry$$00000000
    .ARM.Collect$$rtentry$$00000002
    .ARM.Collect$$rtentry$$00000004
    __rt_entry
    __rt_entry_presh_1
    __rt_entry_sh
        0x08000258:    f000ffdc    ....    BL       __user_setup_stackheap ; 0x8001214
        0x0800025c:    4611        .F      MOV      r1,r2
    .ARM.Collect$$rtentry$$00000009
    .ARM.Collect$$rtentry$$0000000A
    __rt_entry_li
    __rt_entry_postsh_1
        0x0800025e:    f7ffffe9    ....    BL       __rt_lib_init ; 0x8000234
    .ARM.Collect$$rtentry$$0000000C
    .ARM.Collect$$rtentry$$0000000D
    __rt_entry_main
    __rt_entry_postli_1
        0x08000262:    f003f81d    ....    BL       main ; 0x80032a0
        0x08000266:    f001f8b9    ....    BL       exit ; 0x80013dc
    .ARM.Collect$$rtexit$$00000000
    __rt_exit
        0x0800026a:    b403        ..      PUSH     {r0,r1}
    .ARM.Collect$$rtexit$$00000002
    .ARM.Collect$$rtexit$$00000003
    __rt_exit_ls
    __rt_exit_prels_1
        0x0800026c:    f7fffff2    ....    BL       __rt_lib_shutdown ; 0x8000254
    .ARM.Collect$$rtexit$$00000004
    __rt_exit_exit
        0x08000270:    bc03        ..      POP      {r0,r1}
        0x08000272:    f002fd17    ....    BL       _sys_exit ; 0x8002ca4
        0x08000276:    0000        ..      MOVS     r0,r0
    .text
        0x08000278:    f001fcc6    ....    BL       $Ven$TT$L$$ ; 0x8001c08
    Reset_Handler
        0x0800027c:    4809        .H      LDR      r0,[pc,#36] ; [0x80002a4] = 0x800257d
        0x0800027e:    4780        .G      BLX      r0
        0x08000280:    4809        .H      LDR      r0,[pc,#36] ; [0x80002a8] = 0x8000131
        0x08000282:    4700        .G      BX       r0
        0x08000284:    e7fe        ..      B        0x8000284 ; Reset_Handler + 8
        0x08000286:    e7fe        ..      B        0x8000286 ; Reset_Handler + 10
        0x08000288:    e7fe        ..      B        0x8000288 ; Reset_Handler + 12
        0x0800028a:    e7fe        ..      B        0x800028a ; Reset_Handler + 14
        0x0800028c:    e7fe        ..      B        0x800028c ; Reset_Handler + 16
        0x0800028e:    e7fe        ..      B        0x800028e ; Reset_Handler + 18
        0x08000290:    e7fe        ..      B        0x8000290 ; Reset_Handler + 20
        0x08000292:    e7fe        ..      B        0x8000292 ; Reset_Handler + 22
        0x08000294:    e7fe        ..      B        0x8000294 ; Reset_Handler + 24
    ADC1_2_IRQHandler
    ADC3_IRQHandler
    CAN1_RX1_IRQHandler
    CAN1_SCE_IRQHandler
    DMA1_Channel1_IRQHandler
    DMA1_Channel2_IRQHandler
    DMA1_Channel3_IRQHandler
    DMA1_Channel4_IRQHandler
    DMA1_Channel5_IRQHandler
    DMA1_Channel6_IRQHandler
    DMA1_Channel7_IRQHandler
    DMA2_Channel1_IRQHandler
    DMA2_Channel2_IRQHandler
    DMA2_Channel3_IRQHandler
    DMA2_Channel4_5_IRQHandler
    EXTI15_10_IRQHandler
    EXTI1_IRQHandler
    EXTI2_IRQHandler
    FLASH_IRQHandler
    FSMC_IRQHandler
    I2C1_ER_IRQHandler
    I2C1_EV_IRQHandler
    I2C2_ER_IRQHandler
    I2C2_EV_IRQHandler
    PVD_IRQHandler
    RCC_IRQHandler
    RTCAlarm_IRQHandler
    RTC_IRQHandler
    SPI1_IRQHandler
    SPI2_IRQHandler
    SPI3_IRQHandler
    TAMPER_IRQHandler
    TIM1_BRK_IRQHandler
    TIM1_CC_IRQHandler
    TIM1_TRG_COM_IRQHandler
    TIM1_UP_IRQHandler
    TIM2_IRQHandler
    TIM4_IRQHandler
    TIM8_BRK_IRQHandler
    TIM8_CC_IRQHandler
    TIM8_TRG_COM_IRQHandler
    TIM8_UP_IRQHandler
    UART4_IRQHandler
    UART5_IRQHandler
    USART2_IRQHandler
    USBWakeUp_IRQHandler
    USB_HP_CAN1_TX_IRQHandler
    USB_LP_CAN1_RX0_IRQHandler
    WWDG_IRQHandler
        0x08000296:    e7fe        ..      B        ADC1_2_IRQHandler ; 0x8000296
    __user_initial_stackheap
        0x08000298:    4804        .H      LDR      r0,[pc,#16] ; [0x80002ac] = 0x20003328
        0x0800029a:    4905        .I      LDR      r1,[pc,#20] ; [0x80002b0] = 0x20003928
        0x0800029c:    4a05        .J      LDR      r2,[pc,#20] ; [0x80002b4] = 0x20003528
        0x0800029e:    4b06        .K      LDR      r3,[pc,#24] ; [0x80002b8] = 0x20003528
        0x080002a0:    4770        pG      BX       lr
    $d
        0x080002a2:    0000        ..      DCW    0
        0x080002a4:    0800257d    }%..    DCD    134227325
        0x080002a8:    08000131    1...    DCD    134218033
        0x080002ac:    20003328    (3.     DCD    536884008
        0x080002b0:    20003928    (9.     DCD    536885544
        0x080002b4:    20003528    (5.     DCD    536884520
        0x080002b8:    20003528    (5.     DCD    536884520
    $t
    .text
    __use_no_semihosting
        0x080002bc:    4770        pG      BX       lr
        0x080002be:    0000        ..      MOVS     r0,r0
    .text
    vsprintf
        0x080002c0:    b51c        ..      PUSH     {r2-r4,lr}
        0x080002c2:    460c        .F      MOV      r4,r1
        0x080002c4:    4b06        .K      LDR      r3,[pc,#24] ; [0x80002e0] = 0x49b
        0x080002c6:    447b        {D      ADD      r3,r3,pc
        0x080002c8:    4669        iF      MOV      r1,sp
        0x080002ca:    9000        ..      STR      r0,[sp,#0]
        0x080002cc:    4620         F      MOV      r0,r4
        0x080002ce:    f000fa36    ..6.    BL       _printf_char_common ; 0x800073e
        0x080002d2:    4604        .F      MOV      r4,r0
        0x080002d4:    2000        .       MOVS     r0,#0
        0x080002d6:    4669        iF      MOV      r1,sp
        0x080002d8:    f000fa44    ..D.    BL       _sputc ; 0x8000764
        0x080002dc:    4620         F      MOV      r0,r4
        0x080002de:    bd1c        ..      POP      {r2-r4,pc}
    $d
        0x080002e0:    0000049b    ....    DCD    1179
    $t
    .text
    __2printf
        0x080002e4:    b40f        ..      PUSH     {r0-r3}
        0x080002e6:    4904        .I      LDR      r1,[pc,#16] ; [0x80002f8] = 0x20000018
        0x080002e8:    b510        ..      PUSH     {r4,lr}
        0x080002ea:    aa03        ..      ADD      r2,sp,#0xc
        0x080002ec:    9802        ..      LDR      r0,[sp,#8]
        0x080002ee:    f000fa55    ..U.    BL       _printf_char_file ; 0x800079c
        0x080002f2:    bc10        ..      POP      {r4}
        0x080002f4:    f85dfb14    ]...    LDR      pc,[sp],#0x14
    $d
        0x080002f8:    20000018    ...     DCD    536870936
    $t
    .text
    __2sprintf
        0x080002fc:    b40f        ..      PUSH     {r0-r3}
        0x080002fe:    b51c        ..      PUSH     {r2-r4,lr}
        0x08000300:    4b08        .K      LDR      r3,[pc,#32] ; [0x8000324] = 0x45d
        0x08000302:    aa06        ..      ADD      r2,sp,#0x18
        0x08000304:    447b        {D      ADD      r3,r3,pc
        0x08000306:    4669        iF      MOV      r1,sp
        0x08000308:    9000        ..      STR      r0,[sp,#0]
        0x0800030a:    9805        ..      LDR      r0,[sp,#0x14]
        0x0800030c:    f000fa17    ....    BL       _printf_char_common ; 0x800073e
        0x08000310:    4604        .F      MOV      r4,r0
        0x08000312:    2000        .       MOVS     r0,#0
        0x08000314:    4669        iF      MOV      r1,sp
        0x08000316:    f000fa25    ..%.    BL       _sputc ; 0x8000764
        0x0800031a:    4620         F      MOV      r0,r4
        0x0800031c:    bc1c        ..      POP      {r2-r4}
        0x0800031e:    f85dfb14    ]...    LDR      pc,[sp],#0x14
    $d
        0x08000322:    0000        ..      DCW    0
        0x08000324:    0000045d    ]...    DCD    1117
    $t
    .text
    _printf_str
        0x08000328:    b570        p.      PUSH     {r4-r6,lr}
        0x0800032a:    460c        .F      MOV      r4,r1
        0x0800032c:    4605        .F      MOV      r5,r0
        0x0800032e:    2a01        .*      CMP      r2,#1
        0x08000330:    d005        ..      BEQ      0x800033e ; _printf_str + 22
        0x08000332:    7828        (x      LDRB     r0,[r5,#0]
        0x08000334:    0680        ..      LSLS     r0,r0,#26
        0x08000336:    d500        ..      BPL      0x800033a ; _printf_str + 18
        0x08000338:    69ea        .i      LDR      r2,[r5,#0x1c]
        0x0800033a:    2300        .#      MOVS     r3,#0
        0x0800033c:    e002        ..      B        0x8000344 ; _printf_str + 28
        0x0800033e:    2301        .#      MOVS     r3,#1
        0x08000340:    e005        ..      B        0x800034e ; _printf_str + 38
        0x08000342:    1c5b        [.      ADDS     r3,r3,#1
        0x08000344:    4293        .B      CMP      r3,r2
        0x08000346:    d202        ..      BCS      0x800034e ; _printf_str + 38
        0x08000348:    5ce0        .\      LDRB     r0,[r4,r3]
        0x0800034a:    2800        .(      CMP      r0,#0
        0x0800034c:    d1f9        ..      BNE      0x8000342 ; _printf_str + 26
        0x0800034e:    69a8        .i      LDR      r0,[r5,#0x18]
        0x08000350:    18e6        ..      ADDS     r6,r4,r3
        0x08000352:    1ac0        ..      SUBS     r0,r0,r3
        0x08000354:    61a8        .a      STR      r0,[r5,#0x18]
        0x08000356:    6a28        (j      LDR      r0,[r5,#0x20]
        0x08000358:    4418        .D      ADD      r0,r0,r3
        0x0800035a:    6228        (b      STR      r0,[r5,#0x20]
        0x0800035c:    4628        (F      MOV      r0,r5
        0x0800035e:    f000f942    ..B.    BL       _printf_pre_padding ; 0x80005e6
        0x08000362:    e004        ..      B        0x800036e ; _printf_str + 70
        0x08000364:    e9d52101    ...!    LDRD     r2,r1,[r5,#4]
        0x08000368:    f8140b01    ....    LDRB     r0,[r4],#1
        0x0800036c:    4790        .G      BLX      r2
        0x0800036e:    42b4        .B      CMP      r4,r6
        0x08000370:    d3f8        ..      BCC      0x8000364 ; _printf_str + 60
        0x08000372:    4628        (F      MOV      r0,r5
        0x08000374:    f000f94d    ..M.    BL       _printf_post_padding ; 0x8000612
        0x08000378:    bd70        p.      POP      {r4-r6,pc}
        0x0800037a:    0000        ..      MOVS     r0,r0
    .text
    _printf_int_dec
        0x0800037c:    e92d41f0    -..A    PUSH     {r4-r8,lr}
        0x08000380:    4606        .F      MOV      r6,r0
        0x08000382:    2400        .$      MOVS     r4,#0
        0x08000384:    6810        .h      LDR      r0,[r2,#0]
        0x08000386:    2975        u)      CMP      r1,#0x75
        0x08000388:    4631        1F      MOV      r1,r6
        0x0800038a:    a516        ..      ADR      r5,{pc}+0x5a ; 0x80003e4
        0x0800038c:    d010        ..      BEQ      0x80003b0 ; _printf_int_dec + 52
        0x0800038e:    f000f951    ..Q.    BL       _printf_truncate_signed ; 0x8000634
        0x08000392:    2800        .(      CMP      r0,#0
        0x08000394:    da02        ..      BGE      0x800039c ; _printf_int_dec + 32
        0x08000396:    4240        @B      RSBS     r0,r0,#0
        0x08000398:    a513        ..      ADR      r5,{pc}+0x50 ; 0x80003e8
        0x0800039a:    e007        ..      B        0x80003ac ; _printf_int_dec + 48
        0x0800039c:    6831        1h      LDR      r1,[r6,#0]
        0x0800039e:    078a        ..      LSLS     r2,r1,#30
        0x080003a0:    d501        ..      BPL      0x80003a6 ; _printf_int_dec + 42
        0x080003a2:    a512        ..      ADR      r5,{pc}+0x4a ; 0x80003ec
        0x080003a4:    e002        ..      B        0x80003ac ; _printf_int_dec + 48
        0x080003a6:    0749        I.      LSLS     r1,r1,#29
        0x080003a8:    d504        ..      BPL      0x80003b4 ; _printf_int_dec + 56
        0x080003aa:    a511        ..      ADR      r5,{pc}+0x46 ; 0x80003f0
        0x080003ac:    2401        .$      MOVS     r4,#1
        0x080003ae:    e001        ..      B        0x80003b4 ; _printf_int_dec + 56
        0x080003b0:    f000f949    ..I.    BL       _printf_truncate_unsigned ; 0x8000646
        0x080003b4:    2100        .!      MOVS     r1,#0
        0x080003b6:    220a        ."      MOVS     r2,#0xa
        0x080003b8:    f1060724    ..$.    ADD      r7,r6,#0x24
        0x080003bc:    e009        ..      B        0x80003d2 ; _printf_int_dec + 86
        0x080003be:    fbb0fcf2    ....    UDIV     r12,r0,r2
        0x080003c2:    fbb0f3f2    ....    UDIV     r3,r0,r2
        0x080003c6:    fb02001c    ....    MLS      r0,r2,r12,r0
        0x080003ca:    3030        00      ADDS     r0,r0,#0x30
        0x080003cc:    5478        xT      STRB     r0,[r7,r1]
        0x080003ce:    4618        .F      MOV      r0,r3
        0x080003d0:    1c49        I.      ADDS     r1,r1,#1
        0x080003d2:    2800        .(      CMP      r0,#0
        0x080003d4:    d1f3        ..      BNE      0x80003be ; _printf_int_dec + 66
        0x080003d6:    4623        #F      MOV      r3,r4
        0x080003d8:    462a        *F      MOV      r2,r5
        0x080003da:    4630        0F      MOV      r0,r6
        0x080003dc:    e8bd41f0    ...A    POP      {r4-r8,lr}
        0x080003e0:    f000b93a    ..:.    B.W      _printf_int_common ; 0x8000658
    $d
        0x080003e4:    00000000    ....    DCD    0
        0x080003e8:    0000002d    -...    DCD    45
        0x080003ec:    0000002b    +...    DCD    43
        0x080003f0:    00000020     ...    DCD    32
    $t
    .text
    __printf
        0x080003f4:    e92d5ff0    -.._    PUSH     {r4-r12,lr}
        0x080003f8:    4689        .F      MOV      r9,r1
        0x080003fa:    4604        .F      MOV      r4,r0
        0x080003fc:    f04f0a00    O...    MOV      r10,#0
        0x08000400:    f8dfb174    ..t.    LDR      r11,[pc,#372] ; [0x8000578] = 0x348c
        0x08000404:    44fb        .D      ADD      r11,r11,pc
        0x08000406:    f8c0a020    .. .    STR      r10,[r0,#0x20]
        0x0800040a:    4620         F      MOV      r0,r4
        0x0800040c:    68e1        .h      LDR      r1,[r4,#0xc]
        0x0800040e:    4788        .G      BLX      r1
        0x08000410:    2800        .(      CMP      r0,#0
        0x08000412:    d074        t.      BEQ      0x80004fe ; __printf + 266
        0x08000414:    2825        %(      CMP      r0,#0x25
        0x08000416:    d006        ..      BEQ      0x8000426 ; __printf + 50
        0x08000418:    e9d42101    ...!    LDRD     r2,r1,[r4,#4]
        0x0800041c:    4790        .G      BLX      r2
        0x0800041e:    6a20         j      LDR      r0,[r4,#0x20]
        0x08000420:    1c40        @.      ADDS     r0,r0,#1
        0x08000422:    6220         b      STR      r0,[r4,#0x20]
        0x08000424:    e7f1        ..      B        0x800040a ; __printf + 22
        0x08000426:    2600        .&      MOVS     r6,#0
        0x08000428:    465f        _F      MOV      r7,r11
        0x0800042a:    4620         F      MOV      r0,r4
        0x0800042c:    68e1        .h      LDR      r1,[r4,#0xc]
        0x0800042e:    4788        .G      BLX      r1
        0x08000430:    2820         (      CMP      r0,#0x20
        0x08000432:    4605        .F      MOV      r5,r0
        0x08000434:    db07        ..      BLT      0x8000446 ; __printf + 82
        0x08000436:    2d31        1-      CMP      r5,#0x31
        0x08000438:    d205        ..      BCS      0x8000446 ; __printf + 82
        0x0800043a:    1978        x.      ADDS     r0,r7,r5
        0x0800043c:    f8100c20    .. .    LDRB     r0,[r0,#-0x20]
        0x08000440:    b108        ..      CBZ      r0,0x8000446 ; __printf + 82
        0x08000442:    4306        .C      ORRS     r6,r6,r0
        0x08000444:    e7f1        ..      B        0x800042a ; __printf + 54
        0x08000446:    07b0        ..      LSLS     r0,r6,#30
        0x08000448:    d501        ..      BPL      0x800044e ; __printf + 90
        0x0800044a:    f0260604    &...    BIC      r6,r6,#4
        0x0800044e:    f8c4a01c    ....    STR      r10,[r4,#0x1c]
        0x08000452:    2700        .'      MOVS     r7,#0
        0x08000454:    f8c4a018    ....    STR      r10,[r4,#0x18]
        0x08000458:    2d2a        *-      CMP      r5,#0x2a
        0x0800045a:    d009        ..      BEQ      0x8000470 ; __printf + 124
        0x0800045c:    4628        (F      MOV      r0,r5
        0x0800045e:    f002fc1a    ....    BL       _is_digit ; 0x8002c96
        0x08000462:    b338        8.      CBZ      r0,0x80004b4 ; __printf + 192
        0x08000464:    eb040887    ....    ADD      r8,r4,r7,LSL #2
        0x08000468:    3d30        0=      SUBS     r5,r5,#0x30
        0x0800046a:    f8c85018    ...P    STR      r5,[r8,#0x18]
        0x0800046e:    e019        ..      B        0x80004a4 ; __printf + 176
        0x08000470:    f8591b04    Y...    LDR      r1,[r9],#4
        0x08000474:    4620         F      MOV      r0,r4
        0x08000476:    eb040287    ....    ADD      r2,r4,r7,LSL #2
        0x0800047a:    6191        .a      STR      r1,[r2,#0x18]
        0x0800047c:    68e1        .h      LDR      r1,[r4,#0xc]
        0x0800047e:    4788        .G      BLX      r1
        0x08000480:    2f01        ./      CMP      r7,#1
        0x08000482:    4605        .F      MOV      r5,r0
        0x08000484:    d118        ..      BNE      0x80004b8 ; __printf + 196
        0x08000486:    69e0        .i      LDR      r0,[r4,#0x1c]
        0x08000488:    2800        .(      CMP      r0,#0
        0x0800048a:    da20         .      BGE      0x80004ce ; __printf + 218
        0x0800048c:    f0260620    &. .    BIC      r6,r6,#0x20
        0x08000490:    e01d        ..      B        0x80004ce ; __printf + 218
        0x08000492:    f8d80018    ....    LDR      r0,[r8,#0x18]
        0x08000496:    eb000080    ....    ADD      r0,r0,r0,LSL #2
        0x0800049a:    eb050040    ..@.    ADD      r0,r5,r0,LSL #1
        0x0800049e:    3830        08      SUBS     r0,r0,#0x30
        0x080004a0:    f8c80018    ....    STR      r0,[r8,#0x18]
        0x080004a4:    4620         F      MOV      r0,r4
        0x080004a6:    68e1        .h      LDR      r1,[r4,#0xc]
        0x080004a8:    4788        .G      BLX      r1
        0x080004aa:    4605        .F      MOV      r5,r0
        0x080004ac:    f002fbf3    ....    BL       _is_digit ; 0x8002c96
        0x080004b0:    2800        .(      CMP      r0,#0
        0x080004b2:    d1ee        ..      BNE      0x8000492 ; __printf + 158
        0x080004b4:    2f01        ./      CMP      r7,#1
        0x080004b6:    d00a        ..      BEQ      0x80004ce ; __printf + 218
        0x080004b8:    2d2e        .-      CMP      r5,#0x2e
        0x080004ba:    d108        ..      BNE      0x80004ce ; __printf + 218
        0x080004bc:    4620         F      MOV      r0,r4
        0x080004be:    68e1        .h      LDR      r1,[r4,#0xc]
        0x080004c0:    4788        .G      BLX      r1
        0x080004c2:    1c7f        ..      ADDS     r7,r7,#1
        0x080004c4:    4605        .F      MOV      r5,r0
        0x080004c6:    2f02        ./      CMP      r7,#2
        0x080004c8:    f0460620    F. .    ORR      r6,r6,#0x20
        0x080004cc:    dbc4        ..      BLT      0x8000458 ; __printf + 100
        0x080004ce:    69a0        .i      LDR      r0,[r4,#0x18]
        0x080004d0:    2800        .(      CMP      r0,#0
        0x080004d2:    da03        ..      BGE      0x80004dc ; __printf + 232
        0x080004d4:    4240        @B      RSBS     r0,r0,#0
        0x080004d6:    f0460601    F...    ORR      r6,r6,#1
        0x080004da:    61a0        .a      STR      r0,[r4,#0x18]
        0x080004dc:    07f0        ..      LSLS     r0,r6,#31
        0x080004de:    d001        ..      BEQ      0x80004e4 ; __printf + 240
        0x080004e0:    f0260610    &...    BIC      r6,r6,#0x10
        0x080004e4:    2d6c        l-      CMP      r5,#0x6c
        0x080004e6:    d00b        ..      BEQ      0x8000500 ; __printf + 268
        0x080004e8:    2d68        h-      CMP      r5,#0x68
        0x080004ea:    d009        ..      BEQ      0x8000500 ; __printf + 268
        0x080004ec:    2d4c        L-      CMP      r5,#0x4c
        0x080004ee:    d039        9.      BEQ      0x8000564 ; __printf + 368
        0x080004f0:    2d6a        j-      CMP      r5,#0x6a
        0x080004f2:    d035        5.      BEQ      0x8000560 ; __printf + 364
        0x080004f4:    2d74        t-      CMP      r5,#0x74
        0x080004f6:    d035        5.      BEQ      0x8000564 ; __printf + 368
        0x080004f8:    2d7a        z-      CMP      r5,#0x7a
        0x080004fa:    d033        3.      BEQ      0x8000564 ; __printf + 368
        0x080004fc:    e016        ..      B        0x800052c ; __printf + 312
        0x080004fe:    e038        8.      B        0x8000572 ; __printf + 382
        0x08000500:    68e1        .h      LDR      r1,[r4,#0xc]
        0x08000502:    462f        /F      MOV      r7,r5
        0x08000504:    4620         F      MOV      r0,r4
        0x08000506:    4788        .G      BLX      r1
        0x08000508:    42b8        .B      CMP      r0,r7
        0x0800050a:    4605        .F      MOV      r5,r0
        0x0800050c:    d109        ..      BNE      0x8000522 ; __printf + 302
        0x0800050e:    2f6c        l/      CMP      r7,#0x6c
        0x08000510:    d026        &.      BEQ      0x8000560 ; __printf + 364
        0x08000512:    f44f6080    O..`    MOV      r0,#0x400
        0x08000516:    68e1        .h      LDR      r1,[r4,#0xc]
        0x08000518:    4306        .C      ORRS     r6,r6,r0
        0x0800051a:    4620         F      MOV      r0,r4
        0x0800051c:    4788        .G      BLX      r1
        0x0800051e:    4605        .F      MOV      r5,r0
        0x08000520:    e004        ..      B        0x800052c ; __printf + 312
        0x08000522:    2f6c        l/      CMP      r7,#0x6c
        0x08000524:    d01a        ..      BEQ      0x800055c ; __printf + 360
        0x08000526:    f44f7080    O..p    MOV      r0,#0x100
        0x0800052a:    4306        .C      ORRS     r6,r6,r0
        0x0800052c:    b30d        ..      CBZ      r5,0x8000572 ; __printf + 382
        0x0800052e:    f1a50041    ..A.    SUB      r0,r5,#0x41
        0x08000532:    2819        .(      CMP      r0,#0x19
        0x08000534:    d802        ..      BHI      0x800053c ; __printf + 328
        0x08000536:    3520         5      ADDS     r5,r5,#0x20
        0x08000538:    f4466600    F..f    ORR      r6,r6,#0x800
        0x0800053c:    464a        JF      MOV      r2,r9
        0x0800053e:    4629        )F      MOV      r1,r5
        0x08000540:    4620         F      MOV      r0,r4
        0x08000542:    6026        &`      STR      r6,[r4,#0]
        0x08000544:    464e        NF      MOV      r6,r9
        0x08000546:    f7fffe2d    ..-.    BL       _printf_n ; 0x80001a4
        0x0800054a:    b180        ..      CBZ      r0,0x800056e ; __printf + 378
        0x0800054c:    2801        .(      CMP      r0,#1
        0x0800054e:    d00b        ..      BEQ      0x8000568 ; __printf + 372
        0x08000550:    1df6        ..      ADDS     r6,r6,#7
        0x08000552:    f0260007    &...    BIC      r0,r6,#7
        0x08000556:    f1000908    ....    ADD      r9,r0,#8
        0x0800055a:    e756        V.      B        0x800040a ; __printf + 22
        0x0800055c:    2040        @       MOVS     r0,#0x40
        0x0800055e:    e7e4        ..      B        0x800052a ; __printf + 310
        0x08000560:    2080        .       MOVS     r0,#0x80
        0x08000562:    e7d8        ..      B        0x8000516 ; __printf + 290
        0x08000564:    2000        .       MOVS     r0,#0
        0x08000566:    e7d6        ..      B        0x8000516 ; __printf + 290
        0x08000568:    f1060904    ....    ADD      r9,r6,#4
        0x0800056c:    e74d        M.      B        0x800040a ; __printf + 22
        0x0800056e:    4628        (F      MOV      r0,r5
        0x08000570:    e752        R.      B        0x8000418 ; __printf + 36
        0x08000572:    6a20         j      LDR      r0,[r4,#0x20]
        0x08000574:    e8bd9ff0    ....    POP      {r4-r12,pc}
    $d
        0x08000578:    0000348c    .4..    DCD    13452
    $t
    .text
    strstr
        0x0800057c:    b530        0.      PUSH     {r4,r5,lr}
        0x0800057e:    4605        .F      MOV      r5,r0
        0x08000580:    460b        .F      MOV      r3,r1
        0x08000582:    462a        *F      MOV      r2,r5
        0x08000584:    f8134b01    ...K    LDRB     r4,[r3],#1
        0x08000588:    f8120b01    ....    LDRB     r0,[r2],#1
        0x0800058c:    b108        ..      CBZ      r0,0x8000592 ; strstr + 22
        0x0800058e:    42a0        .B      CMP      r0,r4
        0x08000590:    d0f8        ..      BEQ      0x8000584 ; strstr + 8
        0x08000592:    b11c        ..      CBZ      r4,0x800059c ; strstr + 32
        0x08000594:    2800        .(      CMP      r0,#0
        0x08000596:    d002        ..      BEQ      0x800059e ; strstr + 34
        0x08000598:    1c6d        m.      ADDS     r5,r5,#1
        0x0800059a:    e7f1        ..      B        0x8000580 ; strstr + 4
        0x0800059c:    4628        (F      MOV      r0,r5
        0x0800059e:    bd30        0.      POP      {r4,r5,pc}
    .text
    strlen
        0x080005a0:    b510        ..      PUSH     {r4,lr}
        0x080005a2:    1c43        C.      ADDS     r3,r0,#1
        0x080005a4:    e002        ..      B        0x80005ac ; strlen + 12
        0x080005a6:    f8101b01    ....    LDRB     r1,[r0],#1
        0x080005aa:    b171        q.      CBZ      r1,0x80005ca ; strlen + 42
        0x080005ac:    0781        ..      LSLS     r1,r0,#30
        0x080005ae:    d1fa        ..      BNE      0x80005a6 ; strlen + 6
        0x080005b0:    f04f3201    O..2    MOV      r2,#0x1010101
        0x080005b4:    c802        ..      LDM      r0!,{r1}
        0x080005b6:    1a8c        ..      SUBS     r4,r1,r2
        0x080005b8:    438c        .C      BICS     r4,r4,r1
        0x080005ba:    ea1411c2    ....    ANDS     r1,r4,r2,LSL #7
        0x080005be:    d0f9        ..      BEQ      0x80005b4 ; strlen + 20
        0x080005c0:    1ac0        ..      SUBS     r0,r0,r3
        0x080005c2:    060a        ..      LSLS     r2,r1,#24
        0x080005c4:    d003        ..      BEQ      0x80005ce ; strlen + 46
        0x080005c6:    1ec0        ..      SUBS     r0,r0,#3
        0x080005c8:    bd10        ..      POP      {r4,pc}
        0x080005ca:    1ac0        ..      SUBS     r0,r0,r3
        0x080005cc:    bd10        ..      POP      {r4,pc}
        0x080005ce:    040a        ..      LSLS     r2,r1,#16
        0x080005d0:    d001        ..      BEQ      0x80005d6 ; strlen + 54
        0x080005d2:    1e80        ..      SUBS     r0,r0,#2
        0x080005d4:    bd10        ..      POP      {r4,pc}
        0x080005d6:    0209        ..      LSLS     r1,r1,#8
        0x080005d8:    d0fc        ..      BEQ      0x80005d4 ; strlen + 52
        0x080005da:    1e40        @.      SUBS     r0,r0,#1
        0x080005dc:    bd10        ..      POP      {r4,pc}
    .text
    __use_two_region_memory
        0x080005de:    4770        pG      BX       lr
    __rt_heap_escrow$2region
        0x080005e0:    4770        pG      BX       lr
    __rt_heap_expand$2region
        0x080005e2:    4770        pG      BX       lr
    .text
    __I$use$semihosting
    __use_no_semihosting_swi
        0x080005e4:    4770        pG      BX       lr
    .text
    _printf_pre_padding
        0x080005e6:    b570        p.      PUSH     {r4-r6,lr}
        0x080005e8:    4604        .F      MOV      r4,r0
        0x080005ea:    6985        .i      LDR      r5,[r0,#0x18]
        0x080005ec:    6800        .h      LDR      r0,[r0,#0]
        0x080005ee:    06c1        ..      LSLS     r1,r0,#27
        0x080005f0:    d501        ..      BPL      0x80005f6 ; _printf_pre_padding + 16
        0x080005f2:    2630        0&      MOVS     r6,#0x30
        0x080005f4:    e000        ..      B        0x80005f8 ; _printf_pre_padding + 18
        0x080005f6:    2620         &      MOVS     r6,#0x20
        0x080005f8:    07c0        ..      LSLS     r0,r0,#31
        0x080005fa:    d007        ..      BEQ      0x800060c ; _printf_pre_padding + 38
        0x080005fc:    bd70        p.      POP      {r4-r6,pc}
        0x080005fe:    e9d42101    ...!    LDRD     r2,r1,[r4,#4]
        0x08000602:    4630        0F      MOV      r0,r6
        0x08000604:    4790        .G      BLX      r2
        0x08000606:    6a20         j      LDR      r0,[r4,#0x20]
        0x08000608:    1c40        @.      ADDS     r0,r0,#1
        0x0800060a:    6220         b      STR      r0,[r4,#0x20]
        0x0800060c:    1e6d        m.      SUBS     r5,r5,#1
        0x0800060e:    d5f6        ..      BPL      0x80005fe ; _printf_pre_padding + 24
        0x08000610:    bd70        p.      POP      {r4-r6,pc}
    _printf_post_padding
        0x08000612:    b570        p.      PUSH     {r4-r6,lr}
        0x08000614:    4604        .F      MOV      r4,r0
        0x08000616:    6985        .i      LDR      r5,[r0,#0x18]
        0x08000618:    7800        .x      LDRB     r0,[r0,#0]
        0x0800061a:    07c0        ..      LSLS     r0,r0,#31
        0x0800061c:    d107        ..      BNE      0x800062e ; _printf_post_padding + 28
        0x0800061e:    bd70        p.      POP      {r4-r6,pc}
        0x08000620:    e9d42101    ...!    LDRD     r2,r1,[r4,#4]
        0x08000624:    2020                MOVS     r0,#0x20
        0x08000626:    4790        .G      BLX      r2
        0x08000628:    6a20         j      LDR      r0,[r4,#0x20]
        0x0800062a:    1c40        @.      ADDS     r0,r0,#1
        0x0800062c:    6220         b      STR      r0,[r4,#0x20]
        0x0800062e:    1e6d        m.      SUBS     r5,r5,#1
        0x08000630:    d5f6        ..      BPL      0x8000620 ; _printf_post_padding + 14
        0x08000632:    bd70        p.      POP      {r4-r6,pc}
    .text
    _printf_truncate_signed
        0x08000634:    6809        .h      LDR      r1,[r1,#0]
        0x08000636:    054a        J.      LSLS     r2,r1,#21
        0x08000638:    d501        ..      BPL      0x800063e ; _printf_truncate_signed + 10
        0x0800063a:    b240        @.      SXTB     r0,r0
        0x0800063c:    4770        pG      BX       lr
        0x0800063e:    05c9        ..      LSLS     r1,r1,#23
        0x08000640:    d5fc        ..      BPL      0x800063c ; _printf_truncate_signed + 8
        0x08000642:    b200        ..      SXTH     r0,r0
        0x08000644:    4770        pG      BX       lr
    _printf_truncate_unsigned
        0x08000646:    6809        .h      LDR      r1,[r1,#0]
        0x08000648:    054a        J.      LSLS     r2,r1,#21
        0x0800064a:    d501        ..      BPL      0x8000650 ; _printf_truncate_unsigned + 10
        0x0800064c:    b2c0        ..      UXTB     r0,r0
        0x0800064e:    4770        pG      BX       lr
        0x08000650:    05c9        ..      LSLS     r1,r1,#23
        0x08000652:    d5fc        ..      BPL      0x800064e ; _printf_truncate_unsigned + 8
        0x08000654:    b280        ..      UXTH     r0,r0
        0x08000656:    4770        pG      BX       lr
    .text
    _printf_int_common
        0x08000658:    e92d47f0    -..G    PUSH     {r4-r10,lr}
        0x0800065c:    460d        .F      MOV      r5,r1
        0x0800065e:    4699        .F      MOV      r9,r3
        0x08000660:    4692        .F      MOV      r10,r2
        0x08000662:    4604        .F      MOV      r4,r0
        0x08000664:    f1000824    ..$.    ADD      r8,r0,#0x24
        0x08000668:    6801        .h      LDR      r1,[r0,#0]
        0x0800066a:    0688        ..      LSLS     r0,r1,#26
        0x0800066c:    d504        ..      BPL      0x8000678 ; _printf_int_common + 32
        0x0800066e:    69e0        .i      LDR      r0,[r4,#0x1c]
        0x08000670:    f0210110    !...    BIC      r1,r1,#0x10
        0x08000674:    6021        !`      STR      r1,[r4,#0]
        0x08000676:    e000        ..      B        0x800067a ; _printf_int_common + 34
        0x08000678:    2001        .       MOVS     r0,#1
        0x0800067a:    42a8        .B      CMP      r0,r5
        0x0800067c:    dd01        ..      BLE      0x8000682 ; _printf_int_common + 42
        0x0800067e:    1b47        G.      SUBS     r7,r0,r5
        0x08000680:    e000        ..      B        0x8000684 ; _printf_int_common + 44
        0x08000682:    2700        .'      MOVS     r7,#0
        0x08000684:    69a1        .i      LDR      r1,[r4,#0x18]
        0x08000686:    197a        z.      ADDS     r2,r7,r5
        0x08000688:    eb020009    ....    ADD      r0,r2,r9
        0x0800068c:    1a08        ..      SUBS     r0,r1,r0
        0x0800068e:    61a0        .a      STR      r0,[r4,#0x18]
        0x08000690:    7820         x      LDRB     r0,[r4,#0]
        0x08000692:    06c0        ..      LSLS     r0,r0,#27
        0x08000694:    d402        ..      BMI      0x800069c ; _printf_int_common + 68
        0x08000696:    4620         F      MOV      r0,r4
        0x08000698:    f7ffffa5    ....    BL       _printf_pre_padding ; 0x80005e6
        0x0800069c:    2600        .&      MOVS     r6,#0
        0x0800069e:    e008        ..      B        0x80006b2 ; _printf_int_common + 90
        0x080006a0:    e9d42101    ...!    LDRD     r2,r1,[r4,#4]
        0x080006a4:    f81a0006    ....    LDRB     r0,[r10,r6]
        0x080006a8:    4790        .G      BLX      r2
        0x080006aa:    6a20         j      LDR      r0,[r4,#0x20]
        0x080006ac:    1c40        @.      ADDS     r0,r0,#1
        0x080006ae:    1c76        v.      ADDS     r6,r6,#1
        0x080006b0:    6220         b      STR      r0,[r4,#0x20]
        0x080006b2:    454e        NE      CMP      r6,r9
        0x080006b4:    dbf4        ..      BLT      0x80006a0 ; _printf_int_common + 72
        0x080006b6:    7820         x      LDRB     r0,[r4,#0]
        0x080006b8:    06c0        ..      LSLS     r0,r0,#27
        0x080006ba:    d50a        ..      BPL      0x80006d2 ; _printf_int_common + 122
        0x080006bc:    4620         F      MOV      r0,r4
        0x080006be:    f7ffff92    ....    BL       _printf_pre_padding ; 0x80005e6
        0x080006c2:    e006        ..      B        0x80006d2 ; _printf_int_common + 122
        0x080006c4:    e9d42101    ...!    LDRD     r2,r1,[r4,#4]
        0x080006c8:    2030        0       MOVS     r0,#0x30
        0x080006ca:    4790        .G      BLX      r2
        0x080006cc:    6a20         j      LDR      r0,[r4,#0x20]
        0x080006ce:    1c40        @.      ADDS     r0,r0,#1
        0x080006d0:    6220         b      STR      r0,[r4,#0x20]
        0x080006d2:    1e38        8.      SUBS     r0,r7,#0
        0x080006d4:    f1a70701    ....    SUB      r7,r7,#1
        0x080006d8:    dcf4        ..      BGT      0x80006c4 ; _printf_int_common + 108
        0x080006da:    e007        ..      B        0x80006ec ; _printf_int_common + 148
        0x080006dc:    e9d42101    ...!    LDRD     r2,r1,[r4,#4]
        0x080006e0:    f8180005    ....    LDRB     r0,[r8,r5]
        0x080006e4:    4790        .G      BLX      r2
        0x080006e6:    6a20         j      LDR      r0,[r4,#0x20]
        0x080006e8:    1c40        @.      ADDS     r0,r0,#1
        0x080006ea:    6220         b      STR      r0,[r4,#0x20]
        0x080006ec:    1e28        (.      SUBS     r0,r5,#0
        0x080006ee:    f1a50501    ....    SUB      r5,r5,#1
        0x080006f2:    dcf3        ..      BGT      0x80006dc ; _printf_int_common + 132
        0x080006f4:    4620         F      MOV      r0,r4
        0x080006f6:    f7ffff8c    ....    BL       _printf_post_padding ; 0x8000612
        0x080006fa:    7820         x      LDRB     r0,[r4,#0]
        0x080006fc:    0600        ..      LSLS     r0,r0,#24
        0x080006fe:    d502        ..      BPL      0x8000706 ; _printf_int_common + 174
        0x08000700:    2002        .       MOVS     r0,#2
        0x08000702:    e8bd87f0    ....    POP      {r4-r10,pc}
        0x08000706:    2001        .       MOVS     r0,#1
        0x08000708:    e7fb        ..      B        0x8000702 ; _printf_int_common + 170
    .text
    _printf_charcount
        0x0800070a:    6811        .h      LDR      r1,[r2,#0]
        0x0800070c:    6802        .h      LDR      r2,[r0,#0]
        0x0800070e:    6a00        .j      LDR      r0,[r0,#0x20]
        0x08000710:    0553        S.      LSLS     r3,r2,#21
        0x08000712:    d501        ..      BPL      0x8000718 ; _printf_charcount + 14
        0x08000714:    7008        .p      STRB     r0,[r1,#0]
        0x08000716:    e00a        ..      B        0x800072e ; _printf_charcount + 36
        0x08000718:    05d3        ..      LSLS     r3,r2,#23
        0x0800071a:    d501        ..      BPL      0x8000720 ; _printf_charcount + 22
        0x0800071c:    8008        ..      STRH     r0,[r1,#0]
        0x0800071e:    e006        ..      B        0x800072e ; _printf_charcount + 36
        0x08000720:    0613        ..      LSLS     r3,r2,#24
        0x08000722:    d503        ..      BPL      0x800072c ; _printf_charcount + 34
        0x08000724:    17c2        ..      ASRS     r2,r0,#31
        0x08000726:    e9c10200    ....    STRD     r0,r2,[r1,#0]
        0x0800072a:    e000        ..      B        0x800072e ; _printf_charcount + 36
        0x0800072c:    6008        .`      STR      r0,[r1,#0]
        0x0800072e:    2001        .       MOVS     r0,#1
        0x08000730:    4770        pG      BX       lr
        0x08000732:    0000        ..      MOVS     r0,r0
    .text
    _printf_input_char
        0x08000734:    6901        .i      LDR      r1,[r0,#0x10]
        0x08000736:    1c4a        J.      ADDS     r2,r1,#1
        0x08000738:    6102        .a      STR      r2,[r0,#0x10]
        0x0800073a:    7808        .x      LDRB     r0,[r1,#0]
        0x0800073c:    4770        pG      BX       lr
    _printf_char_common
        0x0800073e:    b500        ..      PUSH     {lr}
        0x08000740:    b08f        ..      SUB      sp,sp,#0x3c
        0x08000742:    e9cd3101    ...1    STRD     r3,r1,[sp,#4]
        0x08000746:    2100        .!      MOVS     r1,#0
        0x08000748:    9105        ..      STR      r1,[sp,#0x14]
        0x0800074a:    4905        .I      LDR      r1,[pc,#20] ; [0x8000760] = 0xffffffe5
        0x0800074c:    4479        yD      ADD      r1,r1,pc
        0x0800074e:    e9cd1003    ....    STRD     r1,r0,[sp,#0xc]
        0x08000752:    4611        .F      MOV      r1,r2
        0x08000754:    4668        hF      MOV      r0,sp
        0x08000756:    f7fffe4d    ..M.    BL       __printf ; 0x80003f4
        0x0800075a:    b00f        ..      ADD      sp,sp,#0x3c
        0x0800075c:    bd00        ..      POP      {pc}
    $d
        0x0800075e:    0000        ..      DCW    0
        0x08000760:    ffffffe5    ....    DCD    4294967269
    $t
    .text
    _sputc
        0x08000764:    680a        .h      LDR      r2,[r1,#0]
        0x08000766:    f8020b01    ....    STRB     r0,[r2],#1
        0x0800076a:    600a        .`      STR      r2,[r1,#0]
        0x0800076c:    4770        pG      BX       lr
    .text
    _printf_cs_common
        0x0800076e:    b510        ..      PUSH     {r4,lr}
        0x08000770:    6943        Ci      LDR      r3,[r0,#0x14]
        0x08000772:    b113        ..      CBZ      r3,0x800077a ; _printf_cs_common + 12
        0x08000774:    f3af8000    ....    NOP.W    
        0x08000778:    e001        ..      B        0x800077e ; _printf_cs_common + 16
        0x0800077a:    f7fffdd5    ....    BL       _printf_str ; 0x8000328
        0x0800077e:    2001        .       MOVS     r0,#1
        0x08000780:    bd10        ..      POP      {r4,pc}
    _printf_char
        0x08000782:    7812        .x      LDRB     r2,[r2,#0]
        0x08000784:    f1000124    ..$.    ADD      r1,r0,#0x24
        0x08000788:    700a        .p      STRB     r2,[r1,#0]
        0x0800078a:    2200        ."      MOVS     r2,#0
        0x0800078c:    704a        Jp      STRB     r2,[r1,#1]
        0x0800078e:    2201        ."      MOVS     r2,#1
        0x08000790:    e7ed        ..      B        _printf_cs_common ; 0x800076e
    _printf_string
        0x08000792:    6811        .h      LDR      r1,[r2,#0]
        0x08000794:    f04f32ff    O..2    MOV      r2,#0xffffffff
        0x08000798:    e7e9        ..      B        _printf_cs_common ; 0x800076e
        0x0800079a:    0000        ..      MOVS     r0,r0
    .text
    _printf_char_file
        0x0800079c:    4b07        .K      LDR      r3,[pc,#28] ; [0x80007bc] = 0x2a6f
        0x0800079e:    b570        p.      PUSH     {r4-r6,lr}
        0x080007a0:    460d        .F      MOV      r5,r1
        0x080007a2:    447b        {D      ADD      r3,r3,pc
        0x080007a4:    f7ffffcb    ....    BL       _printf_char_common ; 0x800073e
        0x080007a8:    4604        .F      MOV      r4,r0
        0x080007aa:    4628        (F      MOV      r0,r5
        0x080007ac:    f000fd0e    ....    BL       ferror ; 0x80011cc
        0x080007b0:    b110        ..      CBZ      r0,0x80007b8 ; _printf_char_file + 28
        0x080007b2:    f04f30ff    O..0    MOV      r0,#0xffffffff
        0x080007b6:    bd70        p.      POP      {r4-r6,pc}
        0x080007b8:    4620         F      MOV      r0,r4
        0x080007ba:    bd70        p.      POP      {r4-r6,pc}
    $d
        0x080007bc:    00002a6f    o*..    DCD    10863
    $t
    .text
    _printf_wctomb
        0x080007c0:    e92d5fff    -.._    PUSH     {r0-r12,lr}
        0x080007c4:    4615        .F      MOV      r5,r2
        0x080007c6:    468a        .F      MOV      r10,r1
        0x080007c8:    4604        .F      MOV      r4,r0
        0x080007ca:    f8df80ac    ....    LDR      r8,[pc,#172] ; [0x8000878] = 0x30d6
        0x080007ce:    44f8        .D      ADD      r8,r8,pc
        0x080007d0:    2700        .'      MOVS     r7,#0
        0x080007d2:    e9d81000    ....    LDRD     r1,r0,[r8,#0]
        0x080007d6:    463e        >F      MOV      r6,r7
        0x080007d8:    e9cd1000    ....    STRD     r1,r0,[sp,#0]
        0x080007dc:    e010        ..      B        0x8000800 ; _printf_wctomb + 64
        0x080007de:    f83a1016    :...    LDRH     r1,[r10,r6,LSL #1]
        0x080007e2:    466a        jF      MOV      r2,sp
        0x080007e4:    a802        ..      ADD      r0,sp,#8
        0x080007e6:    f000fcf5    ....    BL       _wcrtomb ; 0x80011d4
        0x080007ea:    1c41        A.      ADDS     r1,r0,#1
        0x080007ec:    d007        ..      BEQ      0x80007fe ; _printf_wctomb + 62
        0x080007ee:    7821        !x      LDRB     r1,[r4,#0]
        0x080007f0:    0689        ..      LSLS     r1,r1,#26
        0x080007f2:    d503        ..      BPL      0x80007fc ; _printf_wctomb + 60
        0x080007f4:    69e2        .i      LDR      r2,[r4,#0x1c]
        0x080007f6:    1839        9.      ADDS     r1,r7,r0
        0x080007f8:    4291        .B      CMP      r1,r2
        0x080007fa:    d80d        ..      BHI      0x8000818 ; _printf_wctomb + 88
        0x080007fc:    4407        .D      ADD      r7,r7,r0
        0x080007fe:    1c76        v.      ADDS     r6,r6,#1
        0x08000800:    7820         x      LDRB     r0,[r4,#0]
        0x08000802:    0680        ..      LSLS     r0,r0,#26
        0x08000804:    d502        ..      BPL      0x800080c ; _printf_wctomb + 76
        0x08000806:    69e0        .i      LDR      r0,[r4,#0x1c]
        0x08000808:    42b8        .B      CMP      r0,r7
        0x0800080a:    dd05        ..      BLE      0x8000818 ; _printf_wctomb + 88
        0x0800080c:    42ae        .B      CMP      r6,r5
        0x0800080e:    dbe6        ..      BLT      0x80007de ; _printf_wctomb + 30
        0x08000810:    f83a0016    :...    LDRH     r0,[r10,r6,LSL #1]
        0x08000814:    2800        .(      CMP      r0,#0
        0x08000816:    d1e2        ..      BNE      0x80007de ; _printf_wctomb + 30
        0x08000818:    69a0        .i      LDR      r0,[r4,#0x18]
        0x0800081a:    1bc0        ..      SUBS     r0,r0,r7
        0x0800081c:    61a0        .a      STR      r0,[r4,#0x18]
        0x0800081e:    4620         F      MOV      r0,r4
        0x08000820:    f7fffee1    ....    BL       _printf_pre_padding ; 0x80005e6
        0x08000824:    e9d81000    ....    LDRD     r1,r0,[r8,#0]
        0x08000828:    e9cd1000    ....    STRD     r1,r0,[sp,#0]
        0x0800082c:    2000        .       MOVS     r0,#0
        0x0800082e:    e017        ..      B        0x8000860 ; _printf_wctomb + 160
        0x08000830:    f83a1018    :...    LDRH     r1,[r10,r8,LSL #1]
        0x08000834:    466a        jF      MOV      r2,sp
        0x08000836:    a802        ..      ADD      r0,sp,#8
        0x08000838:    f000fccc    ....    BL       _wcrtomb ; 0x80011d4
        0x0800083c:    f1b03fff    ...?    CMP      r0,#0xffffffff
        0x08000840:    4681        .F      MOV      r9,r0
        0x08000842:    d00b        ..      BEQ      0x800085c ; _printf_wctomb + 156
        0x08000844:    2500        .%      MOVS     r5,#0
        0x08000846:    f10d0b08    ....    ADD      r11,sp,#8
        0x0800084a:    e005        ..      B        0x8000858 ; _printf_wctomb + 152
        0x0800084c:    e9d42101    ...!    LDRD     r2,r1,[r4,#4]
        0x08000850:    f81b0005    ....    LDRB     r0,[r11,r5]
        0x08000854:    4790        .G      BLX      r2
        0x08000856:    1c6d        m.      ADDS     r5,r5,#1
        0x08000858:    454d        ME      CMP      r5,r9
        0x0800085a:    d3f7        ..      BCC      0x800084c ; _printf_wctomb + 140
        0x0800085c:    f1080001    ....    ADD      r0,r8,#1
        0x08000860:    42b0        .B      CMP      r0,r6
        0x08000862:    4680        .F      MOV      r8,r0
        0x08000864:    dbe4        ..      BLT      0x8000830 ; _printf_wctomb + 112
        0x08000866:    6a20         j      LDR      r0,[r4,#0x20]
        0x08000868:    4438        8D      ADD      r0,r0,r7
        0x0800086a:    6220         b      STR      r0,[r4,#0x20]
        0x0800086c:    4620         F      MOV      r0,r4
        0x0800086e:    f7fffed0    ....    BL       _printf_post_padding ; 0x8000612
        0x08000872:    e8bd9fff    ....    POP      {r0-r12,pc}
    $d
        0x08000876:    0000        ..      DCW    0
        0x08000878:    000030d6    .0..    DCD    12502
    $t
    .text
    _printf_longlong_dec
        0x0800087c:    e92d41f0    -..A    PUSH     {r4-r8,lr}
        0x08000880:    4680        .F      MOV      r8,r0
        0x08000882:    1dd2        ..      ADDS     r2,r2,#7
        0x08000884:    f0220207    "...    BIC      r2,r2,#7
        0x08000888:    2500        .%      MOVS     r5,#0
        0x0800088a:    e9d20200    ....    LDRD     r0,r2,[r2,#0]
        0x0800088e:    29f5        .)      CMP      r1,#0xf5
        0x08000890:    a615        ..      ADR      r6,{pc}+0x58 ; 0x80008e8
        0x08000892:    d014        ..      BEQ      0x80008be ; _printf_longlong_dec + 66
        0x08000894:    1e01        ..      SUBS     r1,r0,#0
        0x08000896:    f1720100    r...    SBCS     r1,r2,#0
        0x0800089a:    da06        ..      BGE      0x80008aa ; _printf_longlong_dec + 46
        0x0800089c:    2300        .#      MOVS     r3,#0
        0x0800089e:    ebd00003    ....    RSBS     r0,r0,r3
        0x080008a2:    eb630202    c...    SBC      r2,r3,r2
        0x080008a6:    a611        ..      ADR      r6,{pc}+0x46 ; 0x80008ec
        0x080008a8:    e008        ..      B        0x80008bc ; _printf_longlong_dec + 64
        0x080008aa:    f8d81000    ....    LDR      r1,[r8,#0]
        0x080008ae:    078b        ..      LSLS     r3,r1,#30
        0x080008b0:    d501        ..      BPL      0x80008b6 ; _printf_longlong_dec + 58
        0x080008b2:    a60f        ..      ADR      r6,{pc}+0x3e ; 0x80008f0
        0x080008b4:    e002        ..      B        0x80008bc ; _printf_longlong_dec + 64
        0x080008b6:    0749        I.      LSLS     r1,r1,#29
        0x080008b8:    d501        ..      BPL      0x80008be ; _printf_longlong_dec + 66
        0x080008ba:    a60e        ..      ADR      r6,{pc}+0x3a ; 0x80008f4
        0x080008bc:    2501        .%      MOVS     r5,#1
        0x080008be:    4611        .F      MOV      r1,r2
        0x080008c0:    2400        .$      MOVS     r4,#0
        0x080008c2:    f1080724    ..$.    ADD      r7,r8,#0x24
        0x080008c6:    e004        ..      B        0x80008d2 ; _printf_longlong_dec + 86
        0x080008c8:    f000f898    ....    BL       _ll_udiv10 ; 0x80009fc
        0x080008cc:    3230        02      ADDS     r2,r2,#0x30
        0x080008ce:    553a        :U      STRB     r2,[r7,r4]
        0x080008d0:    1c64        d.      ADDS     r4,r4,#1
        0x080008d2:    ea500201    P...    ORRS     r2,r0,r1
        0x080008d6:    d1f7        ..      BNE      0x80008c8 ; _printf_longlong_dec + 76
        0x080008d8:    462b        +F      MOV      r3,r5
        0x080008da:    4632        2F      MOV      r2,r6
        0x080008dc:    4621        !F      MOV      r1,r4
        0x080008de:    4640        @F      MOV      r0,r8
        0x080008e0:    e8bd41f0    ...A    POP      {r4-r8,lr}
        0x080008e4:    f7ffbeb8    ....    B.W      _printf_int_common ; 0x8000658
    $d
        0x080008e8:    00000000    ....    DCD    0
        0x080008ec:    0000002d    -...    DCD    45
        0x080008f0:    0000002b    +...    DCD    43
        0x080008f4:    00000020     ...    DCD    32
    $t
    .text
    _printf_longlong_oct_internal
    _printf_longlong_oct
        0x080008f8:    b430        0.      PUSH     {r4,r5}
        0x080008fa:    2100        .!      MOVS     r1,#0
        0x080008fc:    f1000424    ..$.    ADD      r4,r0,#0x24
        0x08000900:    e008        ..      B        0x8000914 ; _printf_longlong_oct_internal + 28
        0x08000902:    f0020507    ....    AND      r5,r2,#7
        0x08000906:    08d2        ..      LSRS     r2,r2,#3
        0x08000908:    3530        05      ADDS     r5,r5,#0x30
        0x0800090a:    ea427243    B.Cr    ORR      r2,r2,r3,LSL #29
        0x0800090e:    08db        ..      LSRS     r3,r3,#3
        0x08000910:    5465        eT      STRB     r5,[r4,r1]
        0x08000912:    1c49        I.      ADDS     r1,r1,#1
        0x08000914:    ea520503    R...    ORRS     r5,r2,r3
        0x08000918:    d1f3        ..      BNE      0x8000902 ; _printf_longlong_oct_internal + 10
        0x0800091a:    6804        .h      LDR      r4,[r0,#0]
        0x0800091c:    2300        .#      MOVS     r3,#0
        0x0800091e:    a210        ..      ADR      r2,{pc}+0x42 ; 0x8000960
        0x08000920:    0725        %.      LSLS     r5,r4,#28
        0x08000922:    d507        ..      BPL      0x8000934 ; _printf_longlong_oct_internal + 60
        0x08000924:    06a4        ..      LSLS     r4,r4,#26
        0x08000926:    d400        ..      BMI      0x800092a ; _printf_longlong_oct_internal + 50
        0x08000928:    b121        !.      CBZ      r1,0x8000934 ; _printf_longlong_oct_internal + 60
        0x0800092a:    69c4        .i      LDR      r4,[r0,#0x1c]
        0x0800092c:    2301        .#      MOVS     r3,#1
        0x0800092e:    a20d        ..      ADR      r2,{pc}+0x36 ; 0x8000964
        0x08000930:    1e64        d.      SUBS     r4,r4,#1
        0x08000932:    61c4        .a      STR      r4,[r0,#0x1c]
        0x08000934:    bc30        0.      POP      {r4,r5}
        0x08000936:    f7ffbe8f    ....    B.W      _printf_int_common ; 0x8000658
    _printf_int_oct
        0x0800093a:    b510        ..      PUSH     {r4,lr}
        0x0800093c:    4604        .F      MOV      r4,r0
        0x0800093e:    4621        !F      MOV      r1,r4
        0x08000940:    6810        .h      LDR      r0,[r2,#0]
        0x08000942:    f7fffe80    ....    BL       _printf_truncate_unsigned ; 0x8000646
        0x08000946:    4602        .F      MOV      r2,r0
        0x08000948:    4620         F      MOV      r0,r4
        0x0800094a:    e8bd4010    ...@    POP      {r4,lr}
        0x0800094e:    2300        .#      MOVS     r3,#0
        0x08000950:    e7d2        ..      B        _printf_longlong_oct_internal ; 0x80008f8
    _printf_ll_oct
        0x08000952:    1dd2        ..      ADDS     r2,r2,#7
        0x08000954:    f0220107    "...    BIC      r1,r2,#7
        0x08000958:    e9d12300    ...#    LDRD     r2,r3,[r1,#0]
        0x0800095c:    e7cc        ..      B        _printf_longlong_oct_internal ; 0x80008f8
    $d
        0x0800095e:    0000        ..      DCW    0
        0x08000960:    00000000    ....    DCD    0
        0x08000964:    00000030    0...    DCD    48
    $t
    .text
    _printf_hex_common
    _printf_longlong_hex
        0x08000968:    b4f0        ..      PUSH     {r4-r7}
        0x0800096a:    460d        .F      MOV      r5,r1
        0x0800096c:    8801        ..      LDRH     r1,[r0,#0]
        0x0800096e:    0509        ..      LSLS     r1,r1,#20
        0x08000970:    d502        ..      BPL      0x8000978 ; _printf_hex_common + 16
        0x08000972:    4c21        !L      LDR      r4,[pc,#132] ; [0x80009f8] = 0x2f38
        0x08000974:    447c        |D      ADD      r4,r4,pc
        0x08000976:    e002        ..      B        0x800097e ; _printf_hex_common + 22
        0x08000978:    4c1f        .L      LDR      r4,[pc,#124] ; [0x80009f8] = 0x2f38
        0x0800097a:    447c        |D      ADD      r4,r4,pc
        0x0800097c:    340e        .4      ADDS     r4,r4,#0xe
        0x0800097e:    2100        .!      MOVS     r1,#0
        0x08000980:    f1000624    ..$.    ADD      r6,r0,#0x24
        0x08000984:    e008        ..      B        0x8000998 ; _printf_hex_common + 48
        0x08000986:    f002070f    ....    AND      r7,r2,#0xf
        0x0800098a:    0912        ..      LSRS     r2,r2,#4
        0x0800098c:    5de7        .]      LDRB     r7,[r4,r7]
        0x0800098e:    ea427203    B..r    ORR      r2,r2,r3,LSL #28
        0x08000992:    091b        ..      LSRS     r3,r3,#4
        0x08000994:    5477        wT      STRB     r7,[r6,r1]
        0x08000996:    1c49        I.      ADDS     r1,r1,#1
        0x08000998:    ea520703    R...    ORRS     r7,r2,r3
        0x0800099c:    d1f3        ..      BNE      0x8000986 ; _printf_hex_common + 30
        0x0800099e:    7802        .x      LDRB     r2,[r0,#0]
        0x080009a0:    2300        .#      MOVS     r3,#0
        0x080009a2:    0712        ..      LSLS     r2,r2,#28
        0x080009a4:    d504        ..      BPL      0x80009b0 ; _printf_hex_common + 72
        0x080009a6:    2d70        p-      CMP      r5,#0x70
        0x080009a8:    d006        ..      BEQ      0x80009b8 ; _printf_hex_common + 80
        0x080009aa:    b109        ..      CBZ      r1,0x80009b0 ; _printf_hex_common + 72
        0x080009ac:    2302        .#      MOVS     r3,#2
        0x080009ae:    3411        .4      ADDS     r4,r4,#0x11
        0x080009b0:    4622        "F      MOV      r2,r4
        0x080009b2:    bcf0        ..      POP      {r4-r7}
        0x080009b4:    f7ffbe50    ..P.    B.W      _printf_int_common ; 0x8000658
        0x080009b8:    2301        .#      MOVS     r3,#1
        0x080009ba:    3410        .4      ADDS     r4,r4,#0x10
        0x080009bc:    e7f8        ..      B        0x80009b0 ; _printf_hex_common + 72
    _printf_int_hex
        0x080009be:    b570        p.      PUSH     {r4-r6,lr}
        0x080009c0:    4604        .F      MOV      r4,r0
        0x080009c2:    460d        .F      MOV      r5,r1
        0x080009c4:    4621        !F      MOV      r1,r4
        0x080009c6:    6810        .h      LDR      r0,[r2,#0]
        0x080009c8:    f7fffe3d    ..=.    BL       _printf_truncate_unsigned ; 0x8000646
        0x080009cc:    4602        .F      MOV      r2,r0
        0x080009ce:    4629        )F      MOV      r1,r5
        0x080009d0:    4620         F      MOV      r0,r4
        0x080009d2:    e8bd4070    ..p@    POP      {r4-r6,lr}
        0x080009d6:    2300        .#      MOVS     r3,#0
        0x080009d8:    e7c6        ..      B        _printf_hex_common ; 0x8000968
    _printf_ll_hex
        0x080009da:    1dd2        ..      ADDS     r2,r2,#7
        0x080009dc:    f0220307    "...    BIC      r3,r2,#7
        0x080009e0:    e9d32300    ...#    LDRD     r2,r3,[r3,#0]
        0x080009e4:    e7c0        ..      B        _printf_hex_common ; 0x8000968
    _printf_hex_ptr
        0x080009e6:    6803        .h      LDR      r3,[r0,#0]
        0x080009e8:    6812        .h      LDR      r2,[r2,#0]
        0x080009ea:    f0430320    C. .    ORR      r3,r3,#0x20
        0x080009ee:    6003        .`      STR      r3,[r0,#0]
        0x080009f0:    2308        .#      MOVS     r3,#8
        0x080009f2:    61c3        .a      STR      r3,[r0,#0x1c]
        0x080009f4:    2300        .#      MOVS     r3,#0
        0x080009f6:    e7b7        ..      B        _printf_hex_common ; 0x8000968
    $d
        0x080009f8:    00002f38    8/..    DCD    12088
    $t
    .text
    _ll_udiv10
        0x080009fc:    b530        0.      PUSH     {r4,r5,lr}
        0x080009fe:    f1b0020a    ....    SUBS     r2,r0,#0xa
        0x08000a02:    ea4f0e90    O...    LSR      lr,r0,#2
        0x08000a06:    f1710300    q...    SBCS     r3,r1,#0
        0x08000a0a:    ea4e7e81    N..~    ORR      lr,lr,r1,LSL #30
        0x08000a0e:    ebb0000e    ....    SUBS     r0,r0,lr
        0x08000a12:    eb610191    a...    SBC      r1,r1,r1,LSR #2
        0x08000a16:    ea4f1e10    O...    LSR      lr,r0,#4
        0x08000a1a:    ea4e7e01    N..~    ORR      lr,lr,r1,LSL #28
        0x08000a1e:    eb10000e    ....    ADDS     r0,r0,lr
        0x08000a22:    eb411111    A...    ADC      r1,r1,r1,LSR #4
        0x08000a26:    ea4f2e10    O...    LSR      lr,r0,#8
        0x08000a2a:    ea4e6e01    N..n    ORR      lr,lr,r1,LSL #24
        0x08000a2e:    eb10000e    ....    ADDS     r0,r0,lr
        0x08000a32:    eb412111    A..!    ADC      r1,r1,r1,LSR #8
        0x08000a36:    ea4f4e10    O..N    LSR      lr,r0,#16
        0x08000a3a:    ea4e4e01    N..N    ORR      lr,lr,r1,LSL #16
        0x08000a3e:    eb10000e    ....    ADDS     r0,r0,lr
        0x08000a42:    eb414111    A..A    ADC      r1,r1,r1,LSR #16
        0x08000a46:    1840        @.      ADDS     r0,r0,r1
        0x08000a48:    f1410100    A...    ADC      r1,r1,#0
        0x08000a4c:    ea4f00d0    O...    LSR      r0,r0,#3
        0x08000a50:    ea407041    @.Ap    ORR      r0,r0,r1,LSL #29
        0x08000a54:    ea4f01d1    O...    LSR      r1,r1,#3
        0x08000a58:    eb100580    ....    ADDS     r5,r0,r0,LSL #2
        0x08000a5c:    ea4f0481    O...    LSL      r4,r1,#2
        0x08000a60:    ea447490    D..t    ORR      r4,r4,r0,LSR #30
        0x08000a64:    eb440401    D...    ADC      r4,r4,r1
        0x08000a68:    196d        m.      ADDS     r5,r5,r5
        0x08000a6a:    eb440404    D...    ADC      r4,r4,r4
        0x08000a6e:    1b52        R.      SUBS     r2,r2,r5
        0x08000a70:    41a3        .A      SBCS     r3,r3,r4
        0x08000a72:    f04f0300    O...    MOV      r3,#0
        0x08000a76:    bf48        H.      IT       MI
        0x08000a78:    320a        .2      ADDMI    r2,r2,#0xa
        0x08000a7a:    d500        ..      BPL      0x8000a7e ; _ll_udiv10 + 130
        0x08000a7c:    bd30        0.      POP      {r4,r5,pc}
        0x08000a7e:    1c40        @.      ADDS     r0,r0,#1
        0x08000a80:    f1410100    A...    ADC      r1,r1,#0
        0x08000a84:    bd30        0.      POP      {r4,r5,pc}
    .text
    __lib_sel_fp_printf
        0x08000a86:    4770        pG      BX       lr
    _fp_digits
        0x08000a88:    e92d4fff    -..O    PUSH     {r0-r11,lr}
        0x08000a8c:    460c        .F      MOV      r4,r1
        0x08000a8e:    461e        .F      MOV      r6,r3
        0x08000a90:    f04f37ff    O..7    MOV      r7,#0xffffffff
        0x08000a94:    b08b        ..      SUB      sp,sp,#0x2c
        0x08000a96:    e9d20100    ....    LDRD     r0,r1,[r2,#0]
        0x08000a9a:    f8dd8060    ..`.    LDR      r8,[sp,#0x60]
        0x08000a9e:    900a        ..      STR      r0,[sp,#0x28]
        0x08000aa0:    468a        .F      MOV      r10,r1
        0x08000aa2:    f3c1550a    ...U    UBFX     r5,r1,#20,#11
        0x08000aa6:    b905        ..      CBNZ     r5,0x8000aaa ; _fp_digits + 34
        0x08000aa8:    463d        =F      MOV      r5,r7
        0x08000aaa:    2100        .!      MOVS     r1,#0
        0x08000aac:    4608        .F      MOV      r0,r1
        0x08000aae:    f04f0000    O...    MOV      r0,#0
        0x08000ab2:    f1ba0f00    ....    CMP      r10,#0
        0x08000ab6:    f4000040    ..@.    AND      r0,r0,#0xc00000
        0x08000aba:    da05        ..      BGE      0x8000ac8 ; _fp_digits + 64
        0x08000abc:    eb000080    ....    ADD      r0,r0,r0,LSL #2
        0x08000ac0:    f44f0140    O.@.    MOV      r1,#0xc00000
        0x08000ac4:    ea010050    ..P.    AND      r0,r1,r0,LSR #1
        0x08000ac8:    ea4f5990    O..Y    LSR      r9,r0,#22
        0x08000acc:    f1b90f01    ....    CMP      r9,#1
        0x08000ad0:    dd00        ..      BLE      0x8000ad4 ; _fp_digits + 76
        0x08000ad2:    46b9        .F      MOV      r9,r7
        0x08000ad4:    980a        ..      LDR      r0,[sp,#0x28]
        0x08000ad6:    ea50004a    P.J.    ORRS     r0,r0,r10,LSL #1
        0x08000ada:    d00e        ..      BEQ      0x8000afa ; _fp_digits + 114
        0x08000adc:    f6445010    D..P    MOV      r0,#0x4d10
        0x08000ae0:    f2a535ff    ...5    SUB      r5,r5,#0x3ff
        0x08000ae4:    4345        EC      MULS     r5,r0,r5
        0x08000ae6:    142f        /.      ASRS     r7,r5,#16
        0x08000ae8:    f1b80f00    ....    CMP      r8,#0
        0x08000aec:    d01e        ..      BEQ      0x8000b2c ; _fp_digits + 164
        0x08000aee:    4275        uB      RSBS     r5,r6,#0
        0x08000af0:    1e29        ).      SUBS     r1,r5,#0
        0x08000af2:    dd1e        ..      BLE      0x8000b32 ; _fp_digits + 170
        0x08000af4:    f1c90200    ....    RSB      r2,r9,#0
        0x08000af8:    e01c        ..      B        0x8000b34 ; _fp_digits + 172
        0x08000afa:    f1b80f01    ....    CMP      r8,#1
        0x08000afe:    f04f0000    O...    MOV      r0,#0
        0x08000b02:    d001        ..      BEQ      0x8000b08 ; _fp_digits + 128
        0x08000b04:    2130        0!      MOVS     r1,#0x30
        0x08000b06:    e003        ..      B        0x8000b10 ; _fp_digits + 136
        0x08000b08:    43f2        .C      MVNS     r2,r6
        0x08000b0a:    e005        ..      B        0x8000b18 ; _fp_digits + 144
        0x08000b0c:    5421        !T      STRB     r1,[r4,r0]
        0x08000b0e:    1c40        @.      ADDS     r0,r0,#1
        0x08000b10:    42b0        .B      CMP      r0,r6
        0x08000b12:    dbfb        ..      BLT      0x8000b0c ; _fp_digits + 132
        0x08000b14:    4630        0F      MOV      r0,r6
        0x08000b16:    2200        ."      MOVS     r2,#0
        0x08000b18:    2100        .!      MOVS     r1,#0
        0x08000b1a:    5421        !T      STRB     r1,[r4,r0]
        0x08000b1c:    990b        ..      LDR      r1,[sp,#0x2c]
        0x08000b1e:    f8c18008    ....    STR      r8,[r1,#8]
        0x08000b22:    e9c12000    ...     STRD     r2,r0,[r1,#0]
        0x08000b26:    b00f        ..      ADD      sp,sp,#0x3c
        0x08000b28:    e8bd8ff0    ....    POP      {r4-r11,pc}
        0x08000b2c:    1bbd        ..      SUBS     r5,r7,r6
        0x08000b2e:    1c6d        m.      ADDS     r5,r5,#1
        0x08000b30:    e7de        ..      B        0x8000af0 ; _fp_digits + 104
        0x08000b32:    464a        JF      MOV      r2,r9
        0x08000b34:    da00        ..      BGE      0x8000b38 ; _fp_digits + 176
        0x08000b36:    4269        iB      RSBS     r1,r5,#0
        0x08000b38:    a806        ..      ADD      r0,sp,#0x18
        0x08000b3a:    f000fbdd    ....    BL       _btod_etento ; 0x80012f8
        0x08000b3e:    ab06        ..      ADD      r3,sp,#0x18
        0x08000b40:    e8930007    ....    LDM      r3,{r0-r2}
        0x08000b44:    ab03        ..      ADD      r3,sp,#0xc
        0x08000b46:    e8830007    ....    STM      r3,{r0-r2}
        0x08000b4a:    4650        PF      MOV      r0,r10
        0x08000b4c:    990a        ..      LDR      r1,[sp,#0x28]
        0x08000b4e:    f000fc93    ....    BL       _btod_d2e ; 0x8001478
        0x08000b52:    e88d0007    ....    STM      sp,{r0-r2}
        0x08000b56:    f5a05000    ...P    SUB      r0,r0,#0x2000
        0x08000b5a:    381f        .8      SUBS     r0,r0,#0x1f
        0x08000b5c:    9000        ..      STR      r0,[sp,#0]
        0x08000b5e:    9803        ..      LDR      r0,[sp,#0xc]
        0x08000b60:    2d00        .-      CMP      r5,#0
        0x08000b62:    dd0a        ..      BLE      0x8000b7a ; _fp_digits + 242
        0x08000b64:    f242011f    B...    MOV      r1,#0x201f
        0x08000b68:    464a        JF      MOV      r2,r9
        0x08000b6a:    4408        .D      ADD      r0,r0,r1
        0x08000b6c:    2300        .#      MOVS     r3,#0
        0x08000b6e:    a903        ..      ADD      r1,sp,#0xc
        0x08000b70:    9003        ..      STR      r0,[sp,#0xc]
        0x08000b72:    4668        hF      MOV      r0,sp
        0x08000b74:    f000fefc    ....    BL       _btod_ediv ; 0x8001970
        0x08000b78:    e009        ..      B        0x8000b8e ; _fp_digits + 262
        0x08000b7a:    f5a05000    ...P    SUB      r0,r0,#0x2000
        0x08000b7e:    464a        JF      MOV      r2,r9
        0x08000b80:    381f        .8      SUBS     r0,r0,#0x1f
        0x08000b82:    2300        .#      MOVS     r3,#0
        0x08000b84:    a903        ..      ADD      r1,sp,#0xc
        0x08000b86:    9003        ..      STR      r0,[sp,#0xc]
        0x08000b88:    4668        hF      MOV      r0,sp
        0x08000b8a:    f000ff06    ....    BL       _btod_emul ; 0x800199a
        0x08000b8e:    e88d0007    ....    STM      sp,{r0-r2}
        0x08000b92:    0400        ..      LSLS     r0,r0,#16
        0x08000b94:    0c00        ..      LSRS     r0,r0,#16
        0x08000b96:    d003        ..      BEQ      0x8000ba0 ; _fp_digits + 280
        0x08000b98:    f04f30ff    O..0    MOV      r0,#0xffffffff
        0x08000b9c:    0841        A.      LSRS     r1,r0,#1
        0x08000b9e:    e000        ..      B        0x8000ba2 ; _fp_digits + 282
        0x08000ba0:    4610        .F      MOV      r0,r2
        0x08000ba2:    f1b80f00    ....    CMP      r8,#0
        0x08000ba6:    d003        ..      BEQ      0x8000bb0 ; _fp_digits + 296
        0x08000ba8:    2200        ."      MOVS     r2,#0
        0x08000baa:    9200        ..      STR      r2,[sp,#0]
        0x08000bac:    4615        .F      MOV      r5,r2
        0x08000bae:    e01e        ..      B        0x8000bee ; _fp_digits + 358
        0x08000bb0:    1e75        u.      SUBS     r5,r6,#1
        0x08000bb2:    d405        ..      BMI      0x8000bc0 ; _fp_digits + 312
        0x08000bb4:    f7ffff22    ..".    BL       _ll_udiv10 ; 0x80009fc
        0x08000bb8:    3230        02      ADDS     r2,r2,#0x30
        0x08000bba:    5562        bU      STRB     r2,[r4,r5]
        0x08000bbc:    1e6d        m.      SUBS     r5,r5,#1
        0x08000bbe:    d5f9        ..      BPL      0x8000bb4 ; _fp_digits + 300
        0x08000bc0:    46b3        .F      MOV      r11,r6
        0x08000bc2:    2201        ."      MOVS     r2,#1
        0x08000bc4:    4308        .C      ORRS     r0,r0,r1
        0x08000bc6:    d002        ..      BEQ      0x8000bce ; _fp_digits + 326
        0x08000bc8:    2200        ."      MOVS     r2,#0
        0x08000bca:    1c7f        ..      ADDS     r7,r7,#1
        0x08000bcc:    e004        ..      B        0x8000bd8 ; _fp_digits + 336
        0x08000bce:    7820         x      LDRB     r0,[r4,#0]
        0x08000bd0:    2830        0(      CMP      r0,#0x30
        0x08000bd2:    d101        ..      BNE      0x8000bd8 ; _fp_digits + 336
        0x08000bd4:    2200        ."      MOVS     r2,#0
        0x08000bd6:    1e7f        ..      SUBS     r7,r7,#1
        0x08000bd8:    2a00        .*      CMP      r2,#0
        0x08000bda:    9709        ..      STR      r7,[sp,#0x24]
        0x08000bdc:    d084        ..      BEQ      0x8000ae8 ; _fp_digits + 96
        0x08000bde:    e01d        ..      B        0x8000c1c ; _fp_digits + 404
        0x08000be0:    2d11        .-      CMP      r5,#0x11
        0x08000be2:    da07        ..      BGE      0x8000bf4 ; _fp_digits + 364
        0x08000be4:    f7ffff0a    ....    BL       _ll_udiv10 ; 0x80009fc
        0x08000be8:    3230        02      ADDS     r2,r2,#0x30
        0x08000bea:    5562        bU      STRB     r2,[r4,r5]
        0x08000bec:    1c6d        m.      ADDS     r5,r5,#1
        0x08000bee:    ea500201    P...    ORRS     r2,r0,r1
        0x08000bf2:    d1f5        ..      BNE      0x8000be0 ; _fp_digits + 344
        0x08000bf4:    4308        .C      ORRS     r0,r0,r1
        0x08000bf6:    d002        ..      BEQ      0x8000bfe ; _fp_digits + 374
        0x08000bf8:    9800        ..      LDR      r0,[sp,#0]
        0x08000bfa:    b1c8        ..      CBZ      r0,0x8000c30 ; _fp_digits + 424
        0x08000bfc:    e00e        ..      B        0x8000c1c ; _fp_digits + 404
        0x08000bfe:    2100        .!      MOVS     r1,#0
        0x08000c00:    1e68        h.      SUBS     r0,r5,#1
        0x08000c02:    e005        ..      B        0x8000c10 ; _fp_digits + 392
        0x08000c04:    5c23        #\      LDRB     r3,[r4,r0]
        0x08000c06:    5c62        b\      LDRB     r2,[r4,r1]
        0x08000c08:    5463        cT      STRB     r3,[r4,r1]
        0x08000c0a:    5422        "T      STRB     r2,[r4,r0]
        0x08000c0c:    1e40        @.      SUBS     r0,r0,#1
        0x08000c0e:    1c49        I.      ADDS     r1,r1,#1
        0x08000c10:    4281        .B      CMP      r1,r0
        0x08000c12:    dbf7        ..      BLT      0x8000c04 ; _fp_digits + 380
        0x08000c14:    46ab        .F      MOV      r11,r5
        0x08000c16:    1ba8        ..      SUBS     r0,r5,r6
        0x08000c18:    1e40        @.      SUBS     r0,r0,#1
        0x08000c1a:    9009        ..      STR      r0,[sp,#0x24]
        0x08000c1c:    2000        .       MOVS     r0,#0
        0x08000c1e:    f804000b    ....    STRB     r0,[r4,r11]
        0x08000c22:    980b        ..      LDR      r0,[sp,#0x2c]
        0x08000c24:    9a09        ..      LDR      r2,[sp,#0x24]
        0x08000c26:    f8c08008    ....    STR      r8,[r0,#8]
        0x08000c2a:    e9c02b00    ...+    STRD     r2,r11,[r0,#0]
        0x08000c2e:    e77a        z.      B        0x8000b26 ; _fp_digits + 158
        0x08000c30:    2611        .&      MOVS     r6,#0x11
        0x08000c32:    f04f0800    O...    MOV      r8,#0
        0x08000c36:    e757        W.      B        0x8000ae8 ; _fp_digits + 96
    _printf_fp_dec_real
        0x08000c38:    e92d4ff0    -..O    PUSH     {r4-r11,lr}
        0x08000c3c:    4688        .F      MOV      r8,r1
        0x08000c3e:    4604        .F      MOV      r4,r0
        0x08000c40:    1dd2        ..      ADDS     r2,r2,#7
        0x08000c42:    f0220107    "...    BIC      r1,r2,#7
        0x08000c46:    b091        ..      SUB      sp,sp,#0x44
        0x08000c48:    e9d10100    ....    LDRD     r0,r1,[r1,#0]
        0x08000c4c:    e9cd010a    ....    STRD     r0,r1,[sp,#0x28]
        0x08000c50:    f002f80d    ....    BL       __ARM_fpclassify ; 0x8002c6e
        0x08000c54:    4602        .F      MOV      r2,r0
        0x08000c56:    980b        ..      LDR      r0,[sp,#0x2c]
        0x08000c58:    0fc0        ..      LSRS     r0,r0,#31
        0x08000c5a:    d001        ..      BEQ      0x8000c60 ; _printf_fp_dec_real + 40
        0x08000c5c:    202d        -       MOVS     r0,#0x2d
        0x08000c5e:    e007        ..      B        0x8000c70 ; _printf_fp_dec_real + 56
        0x08000c60:    6820         h      LDR      r0,[r4,#0]
        0x08000c62:    0781        ..      LSLS     r1,r0,#30
        0x08000c64:    d501        ..      BPL      0x8000c6a ; _printf_fp_dec_real + 50
        0x08000c66:    202b        +       MOVS     r0,#0x2b
        0x08000c68:    e002        ..      B        0x8000c70 ; _printf_fp_dec_real + 56
        0x08000c6a:    2120         !      MOVS     r1,#0x20
        0x08000c6c:    ea0100c0    ....    AND      r0,r1,r0,LSL #3
        0x08000c70:    2a03        .*      CMP      r2,#3
        0x08000c72:    9009        ..      STR      r0,[sp,#0x24]
        0x08000c74:    d001        ..      BEQ      0x8000c7a ; _printf_fp_dec_real + 66
        0x08000c76:    2a07        .*      CMP      r2,#7
        0x08000c78:    db05        ..      BLT      0x8000c86 ; _printf_fp_dec_real + 78
        0x08000c7a:    4603        .F      MOV      r3,r0
        0x08000c7c:    4641        AF      MOV      r1,r8
        0x08000c7e:    4620         F      MOV      r0,r4
        0x08000c80:    f000fafa    ....    BL       _printf_fp_infnan ; 0x8001278
        0x08000c84:    e10b        ..      B        0x8000e9e ; _printf_fp_dec_real + 614
        0x08000c86:    7820         x      LDRB     r0,[r4,#0]
        0x08000c88:    0680        ..      LSLS     r0,r0,#26
        0x08000c8a:    d501        ..      BPL      0x8000c90 ; _printf_fp_dec_real + 88
        0x08000c8c:    69e0        .i      LDR      r0,[r4,#0x1c]
        0x08000c8e:    e000        ..      B        0x8000c92 ; _printf_fp_dec_real + 90
        0x08000c90:    2006        .       MOVS     r0,#6
        0x08000c92:    f1b80f65    ..e.    CMP      r8,#0x65
        0x08000c96:    4681        .F      MOV      r9,r0
        0x08000c98:    d006        ..      BEQ      0x8000ca8 ; _printf_fp_dec_real + 112
        0x08000c9a:    f1b80f66    ..f.    CMP      r8,#0x66
        0x08000c9e:    d018        ..      BEQ      0x8000cd2 ; _printf_fp_dec_real + 154
        0x08000ca0:    f1b80f67    ..g.    CMP      r8,#0x67
        0x08000ca4:    d170        p.      BNE      0x8000d88 ; _printf_fp_dec_real + 336
        0x08000ca6:    e031        1.      B        0x8000d0c ; _printf_fp_dec_real + 212
        0x08000ca8:    2000        .       MOVS     r0,#0
        0x08000caa:    f1b90f11    ....    CMP      r9,#0x11
        0x08000cae:    9000        ..      STR      r0,[sp,#0]
        0x08000cb0:    db01        ..      BLT      0x8000cb6 ; _printf_fp_dec_real + 126
        0x08000cb2:    2311        .#      MOVS     r3,#0x11
        0x08000cb4:    e001        ..      B        0x8000cba ; _printf_fp_dec_real + 130
        0x08000cb6:    f1090301    ....    ADD      r3,r9,#1
        0x08000cba:    aa0a        ..      ADD      r2,sp,#0x28
        0x08000cbc:    a901        ..      ADD      r1,sp,#4
        0x08000cbe:    a80c        ..      ADD      r0,sp,#0x30
        0x08000cc0:    f7fffee2    ....    BL       _fp_digits ; 0x8000a88
        0x08000cc4:    e9dd700c    ...p    LDRD     r7,r0,[sp,#0x30]
        0x08000cc8:    2600        .&      MOVS     r6,#0
        0x08000cca:    f1090501    ....    ADD      r5,r9,#1
        0x08000cce:    4683        .F      MOV      r11,r0
        0x08000cd0:    e047        G.      B        0x8000d62 ; _printf_fp_dec_real + 298
        0x08000cd2:    2001        .       MOVS     r0,#1
        0x08000cd4:    464b        KF      MOV      r3,r9
        0x08000cd6:    9000        ..      STR      r0,[sp,#0]
        0x08000cd8:    f04f4700    O..G    MOV      r7,#0x80000000
        0x08000cdc:    aa0a        ..      ADD      r2,sp,#0x28
        0x08000cde:    a901        ..      ADD      r1,sp,#4
        0x08000ce0:    a80c        ..      ADD      r0,sp,#0x30
        0x08000ce2:    f7fffed1    ....    BL       _fp_digits ; 0x8000a88
        0x08000ce6:    e9ddb00d    ....    LDRD     r11,r0,[sp,#0x34]
        0x08000cea:    990c        ..      LDR      r1,[sp,#0x30]
        0x08000cec:    465d        ]F      MOV      r5,r11
        0x08000cee:    2600        .&      MOVS     r6,#0
        0x08000cf0:    b910        ..      CBNZ     r0,0x8000cf8 ; _printf_fp_dec_real + 192
        0x08000cf2:    f1090001    ....    ADD      r0,r9,#1
        0x08000cf6:    180d        ..      ADDS     r5,r1,r0
        0x08000cf8:    ebb90005    ....    SUBS     r0,r9,r5
        0x08000cfc:    d403        ..      BMI      0x8000d06 ; _printf_fp_dec_real + 206
        0x08000cfe:    f1c036ff    ...6    RSB      r6,r0,#0xffffffff
        0x08000d02:    f1090501    ....    ADD      r5,r9,#1
        0x08000d06:    eba50009    ....    SUB      r0,r5,r9
        0x08000d0a:    e02b        +.      B        0x8000d64 ; _printf_fp_dec_real + 300
        0x08000d0c:    f1b90f01    ....    CMP      r9,#1
        0x08000d10:    da01        ..      BGE      0x8000d16 ; _printf_fp_dec_real + 222
        0x08000d12:    f04f0901    O...    MOV      r9,#1
        0x08000d16:    2000        .       MOVS     r0,#0
        0x08000d18:    f1b90f11    ....    CMP      r9,#0x11
        0x08000d1c:    9000        ..      STR      r0,[sp,#0]
        0x08000d1e:    4648        HF      MOV      r0,r9
        0x08000d20:    dd01        ..      BLE      0x8000d26 ; _printf_fp_dec_real + 238
        0x08000d22:    2311        .#      MOVS     r3,#0x11
        0x08000d24:    e000        ..      B        0x8000d28 ; _printf_fp_dec_real + 240
        0x08000d26:    4603        .F      MOV      r3,r0
        0x08000d28:    aa0a        ..      ADD      r2,sp,#0x28
        0x08000d2a:    a901        ..      ADD      r1,sp,#4
        0x08000d2c:    a80c        ..      ADD      r0,sp,#0x30
        0x08000d2e:    f7fffeab    ....    BL       _fp_digits ; 0x8000a88
        0x08000d32:    e9dd700c    ...p    LDRD     r7,r0,[sp,#0x30]
        0x08000d36:    464d        MF      MOV      r5,r9
        0x08000d38:    2600        .&      MOVS     r6,#0
        0x08000d3a:    4683        .F      MOV      r11,r0
        0x08000d3c:    7820         x      LDRB     r0,[r4,#0]
        0x08000d3e:    0700        ..      LSLS     r0,r0,#28
        0x08000d40:    d40a        ..      BMI      0x8000d58 ; _printf_fp_dec_real + 288
        0x08000d42:    45ab        .E      CMP      r11,r5
        0x08000d44:    da00        ..      BGE      0x8000d48 ; _printf_fp_dec_real + 272
        0x08000d46:    465d        ]F      MOV      r5,r11
        0x08000d48:    a801        ..      ADD      r0,sp,#4
        0x08000d4a:    2d01        .-      CMP      r5,#1
        0x08000d4c:    dd04        ..      BLE      0x8000d58 ; _printf_fp_dec_real + 288
        0x08000d4e:    1941        A.      ADDS     r1,r0,r5
        0x08000d50:    f8111c01    ....    LDRB     r1,[r1,#-1]
        0x08000d54:    2930        0)      CMP      r1,#0x30
        0x08000d56:    d007        ..      BEQ      0x8000d68 ; _printf_fp_dec_real + 304
        0x08000d58:    454f        OE      CMP      r7,r9
        0x08000d5a:    da02        ..      BGE      0x8000d62 ; _printf_fp_dec_real + 298
        0x08000d5c:    f1170f04    ....    CMN      r7,#4
        0x08000d60:    da04        ..      BGE      0x8000d6c ; _printf_fp_dec_real + 308
        0x08000d62:    2001        .       MOVS     r0,#1
        0x08000d64:    4682        .F      MOV      r10,r0
        0x08000d66:    e00f        ..      B        0x8000d88 ; _printf_fp_dec_real + 336
        0x08000d68:    1e6d        m.      SUBS     r5,r5,#1
        0x08000d6a:    e7ee        ..      B        0x8000d4a ; _printf_fp_dec_real + 274
        0x08000d6c:    2f00        ./      CMP      r7,#0
        0x08000d6e:    dc02        ..      BGT      0x8000d76 ; _printf_fp_dec_real + 318
        0x08000d70:    1bed        ..      SUBS     r5,r5,r7
        0x08000d72:    443e        >D      ADD      r6,r6,r7
        0x08000d74:    e003        ..      B        0x8000d7e ; _printf_fp_dec_real + 326
        0x08000d76:    1c78        x.      ADDS     r0,r7,#1
        0x08000d78:    42a8        .B      CMP      r0,r5
        0x08000d7a:    dd00        ..      BLE      0x8000d7e ; _printf_fp_dec_real + 326
        0x08000d7c:    1c7d        }.      ADDS     r5,r7,#1
        0x08000d7e:    1bb8        ..      SUBS     r0,r7,r6
        0x08000d80:    f1000a01    ....    ADD      r10,r0,#1
        0x08000d84:    f04f4700    O..G    MOV      r7,#0x80000000
        0x08000d88:    7820         x      LDRB     r0,[r4,#0]
        0x08000d8a:    0700        ..      LSLS     r0,r0,#28
        0x08000d8c:    d403        ..      BMI      0x8000d96 ; _printf_fp_dec_real + 350
        0x08000d8e:    45aa        .E      CMP      r10,r5
        0x08000d90:    db01        ..      BLT      0x8000d96 ; _printf_fp_dec_real + 350
        0x08000d92:    f04f3aff    O..:    MOV      r10,#0xffffffff
        0x08000d96:    2100        .!      MOVS     r1,#0
        0x08000d98:    f1b74f00    ...O    CMP      r7,#0x80000000
        0x08000d9c:    f10d0843    ..C.    ADD      r8,sp,#0x43
        0x08000da0:    f88d1043    ..C.    STRB     r1,[sp,#0x43]
        0x08000da4:    d024        $.      BEQ      0x8000df0 ; _printf_fp_dec_real + 440
        0x08000da6:    2002        .       MOVS     r0,#2
        0x08000da8:    232b        +#      MOVS     r3,#0x2b
        0x08000daa:    2f00        ./      CMP      r7,#0
        0x08000dac:    da01        ..      BGE      0x8000db2 ; _printf_fp_dec_real + 378
        0x08000dae:    427f        .B      RSBS     r7,r7,#0
        0x08000db0:    232d        -#      MOVS     r3,#0x2d
        0x08000db2:    210a        .!      MOVS     r1,#0xa
        0x08000db4:    1e02        ..      SUBS     r2,r0,#0
        0x08000db6:    f1a00001    ....    SUB      r0,r0,#1
        0x08000dba:    dc00        ..      BGT      0x8000dbe ; _printf_fp_dec_real + 390
        0x08000dbc:    b15f        _.      CBZ      r7,0x8000dd6 ; _printf_fp_dec_real + 414
        0x08000dbe:    fb97fcf1    ....    SDIV     r12,r7,r1
        0x08000dc2:    fb97f2f1    ....    SDIV     r2,r7,r1
        0x08000dc6:    fb017c1c    ...|    MLS      r12,r1,r12,r7
        0x08000dca:    4617        .F      MOV      r7,r2
        0x08000dcc:    f10c0c30    ..0.    ADD      r12,r12,#0x30
        0x08000dd0:    f808cd01    ....    STRB     r12,[r8,#-1]!
        0x08000dd4:    e7ee        ..      B        0x8000db4 ; _printf_fp_dec_real + 380
        0x08000dd6:    f1a80001    ....    SUB      r0,r8,#1
        0x08000dda:    7003        .p      STRB     r3,[r0,#0]
        0x08000ddc:    8821        !.      LDRH     r1,[r4,#0]
        0x08000dde:    0509        ..      LSLS     r1,r1,#20
        0x08000de0:    d501        ..      BPL      0x8000de6 ; _printf_fp_dec_real + 430
        0x08000de2:    2145        E!      MOVS     r1,#0x45
        0x08000de4:    e000        ..      B        0x8000de8 ; _printf_fp_dec_real + 432
        0x08000de6:    2165        e!      MOVS     r1,#0x65
        0x08000de8:    f1a00801    ....    SUB      r8,r0,#1
        0x08000dec:    f8001c01    ....    STRB     r1,[r0,#-1]
        0x08000df0:    9809        ..      LDR      r0,[sp,#0x24]
        0x08000df2:    a90f        ..      ADD      r1,sp,#0x3c
        0x08000df4:    eba10708    ....    SUB      r7,r1,r8
        0x08000df8:    1dff        ..      ADDS     r7,r7,#7
        0x08000dfa:    b100        ..      CBZ      r0,0x8000dfe ; _printf_fp_dec_real + 454
        0x08000dfc:    2001        .       MOVS     r0,#1
        0x08000dfe:    1941        A.      ADDS     r1,r0,r5
        0x08000e00:    eb0170ea    ...p    ADD      r0,r1,r10,ASR #31
        0x08000e04:    69a1        .i      LDR      r1,[r4,#0x18]
        0x08000e06:    4438        8D      ADD      r0,r0,r7
        0x08000e08:    1a08        ..      SUBS     r0,r1,r0
        0x08000e0a:    1e40        @.      SUBS     r0,r0,#1
        0x08000e0c:    61a0        .a      STR      r0,[r4,#0x18]
        0x08000e0e:    7820         x      LDRB     r0,[r4,#0]
        0x08000e10:    06c0        ..      LSLS     r0,r0,#27
        0x08000e12:    d402        ..      BMI      0x8000e1a ; _printf_fp_dec_real + 482
        0x08000e14:    4620         F      MOV      r0,r4
        0x08000e16:    f7fffbe6    ....    BL       _printf_pre_padding ; 0x80005e6
        0x08000e1a:    9809        ..      LDR      r0,[sp,#0x24]
        0x08000e1c:    b128        (.      CBZ      r0,0x8000e2a ; _printf_fp_dec_real + 498
        0x08000e1e:    e9d42101    ...!    LDRD     r2,r1,[r4,#4]
        0x08000e22:    4790        .G      BLX      r2
        0x08000e24:    6a20         j      LDR      r0,[r4,#0x20]
        0x08000e26:    1c40        @.      ADDS     r0,r0,#1
        0x08000e28:    6220         b      STR      r0,[r4,#0x20]
        0x08000e2a:    7820         x      LDRB     r0,[r4,#0]
        0x08000e2c:    06c0        ..      LSLS     r0,r0,#27
        0x08000e2e:    d522        ".      BPL      0x8000e76 ; _printf_fp_dec_real + 574
        0x08000e30:    4620         F      MOV      r0,r4
        0x08000e32:    f7fffbd8    ....    BL       _printf_pre_padding ; 0x80005e6
        0x08000e36:    e01e        ..      B        0x8000e76 ; _printf_fp_dec_real + 574
        0x08000e38:    2e00        ..      CMP      r6,#0
        0x08000e3a:    db04        ..      BLT      0x8000e46 ; _printf_fp_dec_real + 526
        0x08000e3c:    45b3        .E      CMP      r11,r6
        0x08000e3e:    dd02        ..      BLE      0x8000e46 ; _printf_fp_dec_real + 526
        0x08000e40:    a801        ..      ADD      r0,sp,#4
        0x08000e42:    5d80        .]      LDRB     r0,[r0,r6]
        0x08000e44:    e000        ..      B        0x8000e48 ; _printf_fp_dec_real + 528
        0x08000e46:    2030        0       MOVS     r0,#0x30
        0x08000e48:    e9d42101    ...!    LDRD     r2,r1,[r4,#4]
        0x08000e4c:    4790        .G      BLX      r2
        0x08000e4e:    6a20         j      LDR      r0,[r4,#0x20]
        0x08000e50:    1c40        @.      ADDS     r0,r0,#1
        0x08000e52:    6220         b      STR      r0,[r4,#0x20]
        0x08000e54:    1c76        v.      ADDS     r6,r6,#1
        0x08000e56:    f1aa0001    ....    SUB      r0,r10,#1
        0x08000e5a:    ea5f0a00    _...    MOVS     r10,r0
        0x08000e5e:    d10a        ..      BNE      0x8000e76 ; _printf_fp_dec_real + 574
        0x08000e60:    f000fa06    ....    BL       __rt_locale ; 0x8001270
        0x08000e64:    68c0        .h      LDR      r0,[r0,#0xc]
        0x08000e66:    6801        .h      LDR      r1,[r0,#0]
        0x08000e68:    5c40        @\      LDRB     r0,[r0,r1]
        0x08000e6a:    e9d42101    ...!    LDRD     r2,r1,[r4,#4]
        0x08000e6e:    4790        .G      BLX      r2
        0x08000e70:    6a20         j      LDR      r0,[r4,#0x20]
        0x08000e72:    1c40        @.      ADDS     r0,r0,#1
        0x08000e74:    6220         b      STR      r0,[r4,#0x20]
        0x08000e76:    1e28        (.      SUBS     r0,r5,#0
        0x08000e78:    f1a50501    ....    SUB      r5,r5,#1
        0x08000e7c:    dcdc        ..      BGT      0x8000e38 ; _printf_fp_dec_real + 512
        0x08000e7e:    e007        ..      B        0x8000e90 ; _printf_fp_dec_real + 600
        0x08000e80:    e9d42101    ...!    LDRD     r2,r1,[r4,#4]
        0x08000e84:    f8180b01    ....    LDRB     r0,[r8],#1
        0x08000e88:    4790        .G      BLX      r2
        0x08000e8a:    6a20         j      LDR      r0,[r4,#0x20]
        0x08000e8c:    1c40        @.      ADDS     r0,r0,#1
        0x08000e8e:    6220         b      STR      r0,[r4,#0x20]
        0x08000e90:    1e38        8.      SUBS     r0,r7,#0
        0x08000e92:    f1a70701    ....    SUB      r7,r7,#1
        0x08000e96:    dcf3        ..      BGT      0x8000e80 ; _printf_fp_dec_real + 584
        0x08000e98:    4620         F      MOV      r0,r4
        0x08000e9a:    f7fffbba    ....    BL       _printf_post_padding ; 0x8000612
        0x08000e9e:    2003        .       MOVS     r0,#3
        0x08000ea0:    b011        ..      ADD      sp,sp,#0x44
        0x08000ea2:    e641        A.      B        0x8000b28 ; _fp_digits + 160
    .text
    _printf_fp_hex_real
        0x08000ea4:    e92d4ff0    -..O    PUSH     {r4-r11,lr}
        0x08000ea8:    4604        .F      MOV      r4,r0
        0x08000eaa:    460d        .F      MOV      r5,r1
        0x08000eac:    1dd2        ..      ADDS     r2,r2,#7
        0x08000eae:    f0220007    "...    BIC      r0,r2,#7
        0x08000eb2:    b089        ..      SUB      sp,sp,#0x24
        0x08000eb4:    e9d09700    ....    LDRD     r9,r7,[r0,#0]
        0x08000eb8:    4648        HF      MOV      r0,r9
        0x08000eba:    4639        9F      MOV      r1,r7
        0x08000ebc:    f001fed7    ....    BL       __ARM_fpclassify ; 0x8002c6e
        0x08000ec0:    4602        .F      MOV      r2,r0
        0x08000ec2:    0ff8        ..      LSRS     r0,r7,#31
        0x08000ec4:    d001        ..      BEQ      0x8000eca ; _printf_fp_hex_real + 38
        0x08000ec6:    232d        -#      MOVS     r3,#0x2d
        0x08000ec8:    e007        ..      B        0x8000eda ; _printf_fp_hex_real + 54
        0x08000eca:    6820         h      LDR      r0,[r4,#0]
        0x08000ecc:    0781        ..      LSLS     r1,r0,#30
        0x08000ece:    d501        ..      BPL      0x8000ed4 ; _printf_fp_hex_real + 48
        0x08000ed0:    232b        +#      MOVS     r3,#0x2b
        0x08000ed2:    e002        ..      B        0x8000eda ; _printf_fp_hex_real + 54
        0x08000ed4:    2120         !      MOVS     r1,#0x20
        0x08000ed6:    ea0103c0    ....    AND      r3,r1,r0,LSL #3
        0x08000eda:    f88d3020    .. 0    STRB     r3,[sp,#0x20]
        0x08000ede:    b10b        ..      CBZ      r3,0x8000ee4 ; _printf_fp_hex_real + 64
        0x08000ee0:    2001        .       MOVS     r0,#1
        0x08000ee2:    e000        ..      B        0x8000ee6 ; _printf_fp_hex_real + 66
        0x08000ee4:    2000        .       MOVS     r0,#0
        0x08000ee6:    2a03        .*      CMP      r2,#3
        0x08000ee8:    4682        .F      MOV      r10,r0
        0x08000eea:    d001        ..      BEQ      0x8000ef0 ; _printf_fp_hex_real + 76
        0x08000eec:    2a07        .*      CMP      r2,#7
        0x08000eee:    db04        ..      BLT      0x8000efa ; _printf_fp_hex_real + 86
        0x08000ef0:    4629        )F      MOV      r1,r5
        0x08000ef2:    4620         F      MOV      r0,r4
        0x08000ef4:    f000f9c0    ....    BL       _printf_fp_infnan ; 0x8001278
        0x08000ef8:    e13f        ?.      B        0x800117a ; _printf_fp_hex_real + 726
        0x08000efa:    7820         x      LDRB     r0,[r4,#0]
        0x08000efc:    0680        ..      LSLS     r0,r0,#26
        0x08000efe:    d401        ..      BMI      0x8000f04 ; _printf_fp_hex_real + 96
        0x08000f00:    250d        .%      MOVS     r5,#0xd
        0x08000f02:    e000        ..      B        0x8000f06 ; _printf_fp_hex_real + 98
        0x08000f04:    69e5        .i      LDR      r5,[r4,#0x1c]
        0x08000f06:    f3c7560a    ...V    UBFX     r6,r7,#20,#11
        0x08000f0a:    2d0d        .-      CMP      r5,#0xd
        0x08000f0c:    da49        I.      BGE      0x8000fa2 ; _printf_fp_hex_real + 254
        0x08000f0e:    2100        .!      MOVS     r1,#0
        0x08000f10:    ea4f5b17    O..[    LSR      r11,r7,#20
        0x08000f14:    4608        .F      MOV      r0,r1
        0x08000f16:    f04f0000    O...    MOV      r0,#0
        0x08000f1a:    2f00        ./      CMP      r7,#0
        0x08000f1c:    f4000040    ..@.    AND      r0,r0,#0xc00000
        0x08000f20:    da07        ..      BGE      0x8000f32 ; _printf_fp_hex_real + 142
        0x08000f22:    eb000080    ....    ADD      r0,r0,r0,LSL #2
        0x08000f26:    f44f0140    O.@.    MOV      r1,#0xc00000
        0x08000f2a:    eb0070d0    ...p    ADD      r0,r0,r0,LSR #31
        0x08000f2e:    ea010060    ..`.    AND      r0,r1,r0,ASR #1
        0x08000f32:    1581        ..      ASRS     r1,r0,#22
        0x08000f34:    2901        .)      CMP      r1,#1
        0x08000f36:    dd01        ..      BLE      0x8000f3c ; _printf_fp_hex_real + 152
        0x08000f38:    f04f31ff    O..1    MOV      r1,#0xffffffff
        0x08000f3c:    2200        ."      MOVS     r2,#0
        0x08000f3e:    ea4f0c85    O...    LSL      r12,r5,#2
        0x08000f42:    f1bc0f18    ....    CMP      r12,#0x18
        0x08000f46:    d306        ..      BCC      0x8000f56 ; _printf_fp_hex_real + 178
        0x08000f48:    4613        .F      MOV      r3,r2
        0x08000f4a:    f1ac0018    ....    SUB      r0,r12,#0x18
        0x08000f4e:    f04f5280    O..R    MOV      r2,#0x10000000
        0x08000f52:    40c2        .@      LSRS     r2,r2,r0
        0x08000f54:    e003        ..      B        0x8000f5e ; _printf_fp_hex_real + 186
        0x08000f56:    f44f1380    O...    MOV      r3,#0x100000
        0x08000f5a:    fa23f30c    #...    LSR      r3,r3,r12
        0x08000f5e:    f10c0c0c    ....    ADD      r12,r12,#0xc
        0x08000f62:    f1bc0f20    .. .    CMP      r12,#0x20
        0x08000f66:    d304        ..      BCC      0x8000f72 ; _printf_fp_hex_real + 206
        0x08000f68:    f1ac0c20    .. .    SUB      r12,r12,#0x20
        0x08000f6c:    fa09f00c    ....    LSL      r0,r9,r12
        0x08000f70:    e001        ..      B        0x8000f76 ; _printf_fp_hex_real + 210
        0x08000f72:    fa07f00c    ....    LSL      r0,r7,r12
        0x08000f76:    2900        .)      CMP      r1,#0
        0x08000f78:    f04f4800    O..H    MOV      r8,#0x80000000
        0x08000f7c:    dd01        ..      BLE      0x8000f82 ; _printf_fp_hex_real + 222
        0x08000f7e:    b918        ..      CBNZ     r0,0x8000f88 ; _printf_fp_hex_real + 228
        0x08000f80:    e00f        ..      B        0x8000fa2 ; _printf_fp_hex_real + 254
        0x08000f82:    d10e        ..      BNE      0x8000fa2 ; _printf_fp_hex_real + 254
        0x08000f84:    4540        @E      CMP      r0,r8
        0x08000f86:    d30c        ..      BCC      0x8000fa2 ; _printf_fp_hex_real + 254
        0x08000f88:    eb190902    ....    ADDS     r9,r9,r2
        0x08000f8c:    415f        _A      ADCS     r7,r7,r3
        0x08000f8e:    b921        !.      CBNZ     r1,0x8000f9a ; _printf_fp_hex_real + 246
        0x08000f90:    4540        @E      CMP      r0,r8
        0x08000f92:    d102        ..      BNE      0x8000f9a ; _printf_fp_hex_real + 246
        0x08000f94:    439f        .C      BICS     r7,r7,r3
        0x08000f96:    ea290902    )...    BIC      r9,r9,r2
        0x08000f9a:    ebbb5f17    ..._    CMP      r11,r7,LSR #20
        0x08000f9e:    d000        ..      BEQ      0x8000fa2 ; _printf_fp_hex_real + 254
        0x08000fa0:    1c76        v.      ADDS     r6,r6,#1
        0x08000fa2:    8820         .      LDRH     r0,[r4,#0]
        0x08000fa4:    0500        ..      LSLS     r0,r0,#20
        0x08000fa6:    d502        ..      BPL      0x8000fae ; _printf_fp_hex_real + 266
        0x08000fa8:    487b        {H      LDR      r0,[pc,#492] ; [0x8001198] = 0x293d
        0x08000faa:    4478        xD      ADD      r0,r0,pc
        0x08000fac:    e002        ..      B        0x8000fb4 ; _printf_fp_hex_real + 272
        0x08000fae:    487a        zH      LDR      r0,[pc,#488] ; [0x8001198] = 0x293d
        0x08000fb0:    4478        xD      ADD      r0,r0,pc
        0x08000fb2:    3819        .8      SUBS     r0,r0,#0x19
        0x08000fb4:    aa08        ..      ADD      r2,sp,#0x20
        0x08000fb6:    2330        0#      MOVS     r3,#0x30
        0x08000fb8:    f802300a    ...0    STRB     r3,[r2,r10]
        0x08000fbc:    7c03        .|      LDRB     r3,[r0,#0x10]
        0x08000fbe:    f10a0101    ....    ADD      r1,r10,#1
        0x08000fc2:    2e00        ..      CMP      r6,#0
        0x08000fc4:    f10a0a02    ....    ADD      r10,r10,#2
        0x08000fc8:    5453        ST      STRB     r3,[r2,r1]
        0x08000fca:    466a        jF      MOV      r2,sp
        0x08000fcc:    dc02        ..      BGT      0x8000fd4 ; _printf_fp_hex_real + 304
        0x08000fce:    f04f0130    O.0.    MOV      r1,#0x30
        0x08000fd2:    e001        ..      B        0x8000fd8 ; _printf_fp_hex_real + 308
        0x08000fd4:    f04f0131    O.1.    MOV      r1,#0x31
        0x08000fd8:    f04f0801    O...    MOV      r8,#1
        0x08000fdc:    f88d1000    ....    STRB     r1,[sp,#0]
        0x08000fe0:    d002        ..      BEQ      0x8000fe8 ; _printf_fp_hex_real + 324
        0x08000fe2:    f2a636ff    ...6    SUB      r6,r6,#0x3ff
        0x08000fe6:    e003        ..      B        0x8000ff0 ; _printf_fp_hex_real + 332
        0x08000fe8:    ea590147    Y.G.    ORRS     r1,r9,r7,LSL #1
        0x08000fec:    d000        ..      BEQ      0x8000ff0 ; _printf_fp_hex_real + 332
        0x08000fee:    4e6b        kN      LDR      r6,[pc,#428] ; [0x800119c] = 0xfffffc02
        0x08000ff0:    2d00        .-      CMP      r5,#0
        0x08000ff2:    dc02        ..      BGT      0x8000ffa ; _printf_fp_hex_real + 342
        0x08000ff4:    7821        !x      LDRB     r1,[r4,#0]
        0x08000ff6:    0709        ..      LSLS     r1,r1,#28
        0x08000ff8:    d504        ..      BPL      0x8001004 ; _printf_fp_hex_real + 352
        0x08000ffa:    f04f0802    O...    MOV      r8,#2
        0x08000ffe:    212e        .!      MOVS     r1,#0x2e
        0x08001000:    f88d1001    ....    STRB     r1,[sp,#1]
        0x08001004:    46c4        .F      MOV      r12,r8
        0x08001006:    2100        .!      MOVS     r1,#0
        0x08001008:    e00b        ..      B        0x8001022 ; _printf_fp_hex_real + 382
        0x0800100a:    f3c74303    ...C    UBFX     r3,r7,#16,#4
        0x0800100e:    013f        ?.      LSLS     r7,r7,#4
        0x08001010:    5cc3        .\      LDRB     r3,[r0,r3]
        0x08001012:    1c49        I.      ADDS     r1,r1,#1
        0x08001014:    1e6d        m.      SUBS     r5,r5,#1
        0x08001016:    f8023008    ...0    STRB     r3,[r2,r8]
        0x0800101a:    2905        .)      CMP      r1,#5
        0x0800101c:    f1080801    ....    ADD      r8,r8,#1
        0x08001020:    da01        ..      BGE      0x8001026 ; _printf_fp_hex_real + 386
        0x08001022:    2d00        .-      CMP      r5,#0
        0x08001024:    dcf1        ..      BGT      0x800100a ; _printf_fp_hex_real + 358
        0x08001026:    2100        .!      MOVS     r1,#0
        0x08001028:    e00c        ..      B        0x8001044 ; _printf_fp_hex_real + 416
        0x0800102a:    eb007319    ...s    ADD      r3,r0,r9,LSR #28
        0x0800102e:    1c49        I.      ADDS     r1,r1,#1
        0x08001030:    781b        .x      LDRB     r3,[r3,#0]
        0x08001032:    1e6d        m.      SUBS     r5,r5,#1
        0x08001034:    2908        .)      CMP      r1,#8
        0x08001036:    f8023008    ...0    STRB     r3,[r2,r8]
        0x0800103a:    ea4f1909    O...    LSL      r9,r9,#4
        0x0800103e:    f1080801    ....    ADD      r8,r8,#1
        0x08001042:    da01        ..      BGE      0x8001048 ; _printf_fp_hex_real + 420
        0x08001044:    2d00        .-      CMP      r5,#0
        0x08001046:    dcf0        ..      BGT      0x800102a ; _printf_fp_hex_real + 390
        0x08001048:    6821        !h      LDR      r1,[r4,#0]
        0x0800104a:    068b        ..      LSLS     r3,r1,#26
        0x0800104c:    d502        ..      BPL      0x8001054 ; _printf_fp_hex_real + 432
        0x0800104e:    e016        ..      B        0x800107e ; _printf_fp_hex_real + 474
        0x08001050:    f1a80801    ....    SUB      r8,r8,#1
        0x08001054:    45e0        .E      CMP      r8,r12
        0x08001056:    dd05        ..      BLE      0x8001064 ; _printf_fp_hex_real + 448
        0x08001058:    eb020308    ....    ADD      r3,r2,r8
        0x0800105c:    f8133c01    ...<    LDRB     r3,[r3,#-1]
        0x08001060:    2b30        0+      CMP      r3,#0x30
        0x08001062:    d0f5        ..      BEQ      0x8001050 ; _printf_fp_hex_real + 428
        0x08001064:    f1b80f00    ....    CMP      r8,#0
        0x08001068:    dd09        ..      BLE      0x800107e ; _printf_fp_hex_real + 474
        0x0800106a:    eb020308    ....    ADD      r3,r2,r8
        0x0800106e:    f8133c01    ...<    LDRB     r3,[r3,#-1]
        0x08001072:    2b2e        .+      CMP      r3,#0x2e
        0x08001074:    d103        ..      BNE      0x800107e ; _printf_fp_hex_real + 474
        0x08001076:    0709        ..      LSLS     r1,r1,#28
        0x08001078:    d401        ..      BMI      0x800107e ; _printf_fp_hex_real + 474
        0x0800107a:    f1a80801    ....    SUB      r8,r8,#1
        0x0800107e:    2d00        .-      CMP      r5,#0
        0x08001080:    dd05        ..      BLE      0x800108e ; _printf_fp_hex_real + 490
        0x08001082:    213e        >!      MOVS     r1,#0x3e
        0x08001084:    f8021008    ....    STRB     r1,[r2,r8]
        0x08001088:    1e6d        m.      SUBS     r5,r5,#1
        0x0800108a:    f1080801    ....    ADD      r8,r8,#1
        0x0800108e:    7c40        @|      LDRB     r0,[r0,#0x11]
        0x08001090:    2e00        ..      CMP      r6,#0
        0x08001092:    f8020008    ....    STRB     r0,[r2,r8]
        0x08001096:    f1080801    ....    ADD      r8,r8,#1
        0x0800109a:    da04        ..      BGE      0x80010a6 ; _printf_fp_hex_real + 514
        0x0800109c:    202d        -       MOVS     r0,#0x2d
        0x0800109e:    4276        vB      RSBS     r6,r6,#0
        0x080010a0:    f8020008    ....    STRB     r0,[r2,r8]
        0x080010a4:    e002        ..      B        0x80010ac ; _printf_fp_hex_real + 520
        0x080010a6:    202b        +       MOVS     r0,#0x2b
        0x080010a8:    f8020008    ....    STRB     r0,[r2,r8]
        0x080010ac:    210a        .!      MOVS     r1,#0xa
        0x080010ae:    f44f707a    O.zp    MOV      r0,#0x3e8
        0x080010b2:    4286        .B      CMP      r6,r0
        0x080010b4:    f1080801    ....    ADD      r8,r8,#1
        0x080010b8:    db0b        ..      BLT      0x80010d2 ; _printf_fp_hex_real + 558
        0x080010ba:    fb96f3f0    ....    SDIV     r3,r6,r0
        0x080010be:    3330        03      ADDS     r3,r3,#0x30
        0x080010c0:    f8023008    ...0    STRB     r3,[r2,r8]
        0x080010c4:    fb96f3f0    ....    SDIV     r3,r6,r0
        0x080010c8:    f1080801    ....    ADD      r8,r8,#1
        0x080010cc:    fb006613    ...f    MLS      r6,r0,r3,r6
        0x080010d0:    e001        ..      B        0x80010d6 ; _printf_fp_hex_real + 562
        0x080010d2:    2e64        d.      CMP      r6,#0x64
        0x080010d4:    db0c        ..      BLT      0x80010f0 ; _printf_fp_hex_real + 588
        0x080010d6:    2064        d       MOVS     r0,#0x64
        0x080010d8:    fb96f3f0    ....    SDIV     r3,r6,r0
        0x080010dc:    3330        03      ADDS     r3,r3,#0x30
        0x080010de:    f8023008    ...0    STRB     r3,[r2,r8]
        0x080010e2:    fb96f3f0    ....    SDIV     r3,r6,r0
        0x080010e6:    f1080801    ....    ADD      r8,r8,#1
        0x080010ea:    fb006613    ...f    MLS      r6,r0,r3,r6
        0x080010ee:    e001        ..      B        0x80010f4 ; _printf_fp_hex_real + 592
        0x080010f0:    2e0a        ..      CMP      r6,#0xa
        0x080010f2:    db06        ..      BLT      0x8001102 ; _printf_fp_hex_real + 606
        0x080010f4:    fb96f0f1    ....    SDIV     r0,r6,r1
        0x080010f8:    3030        00      ADDS     r0,r0,#0x30
        0x080010fa:    f8020008    ....    STRB     r0,[r2,r8]
        0x080010fe:    f1080801    ....    ADD      r8,r8,#1
        0x08001102:    fb96f0f1    ....    SDIV     r0,r6,r1
        0x08001106:    fb016010    ...`    MLS      r0,r1,r0,r6
        0x0800110a:    3030        00      ADDS     r0,r0,#0x30
        0x0800110c:    f8020008    ....    STRB     r0,[r2,r8]
        0x08001110:    69a1        .i      LDR      r1,[r4,#0x18]
        0x08001112:    f1080801    ....    ADD      r8,r8,#1
        0x08001116:    eb080205    ....    ADD      r2,r8,r5
        0x0800111a:    eb02000a    ....    ADD      r0,r2,r10
        0x0800111e:    1a08        ..      SUBS     r0,r1,r0
        0x08001120:    61a0        .a      STR      r0,[r4,#0x18]
        0x08001122:    7820         x      LDRB     r0,[r4,#0]
        0x08001124:    06c0        ..      LSLS     r0,r0,#27
        0x08001126:    d402        ..      BMI      0x800112e ; _printf_fp_hex_real + 650
        0x08001128:    4620         F      MOV      r0,r4
        0x0800112a:    f7fffa5c    ..\.    BL       _printf_pre_padding ; 0x80005e6
        0x0800112e:    6a21        !j      LDR      r1,[r4,#0x20]
        0x08001130:    ae08        ..      ADD      r6,sp,#0x20
        0x08001132:    eb01000a    ....    ADD      r0,r1,r10
        0x08001136:    6220         b      STR      r0,[r4,#0x20]
        0x08001138:    e004        ..      B        0x8001144 ; _printf_fp_hex_real + 672
        0x0800113a:    e9d42101    ...!    LDRD     r2,r1,[r4,#4]
        0x0800113e:    f8160b01    ....    LDRB     r0,[r6],#1
        0x08001142:    4790        .G      BLX      r2
        0x08001144:    f1ba0a01    ....    SUBS     r10,r10,#1
        0x08001148:    d2f7        ..      BCS      0x800113a ; _printf_fp_hex_real + 662
        0x0800114a:    7820         x      LDRB     r0,[r4,#0]
        0x0800114c:    06c0        ..      LSLS     r0,r0,#27
        0x0800114e:    d502        ..      BPL      0x8001156 ; _printf_fp_hex_real + 690
        0x08001150:    4620         F      MOV      r0,r4
        0x08001152:    f7fffa48    ..H.    BL       _printf_pre_padding ; 0x80005e6
        0x08001156:    466e        nF      MOV      r6,sp
        0x08001158:    e009        ..      B        0x800116e ; _printf_fp_hex_real + 714
        0x0800115a:    f8160b01    ....    LDRB     r0,[r6],#1
        0x0800115e:    283e        >(      CMP      r0,#0x3e
        0x08001160:    d00f        ..      BEQ      0x8001182 ; _printf_fp_hex_real + 734
        0x08001162:    e9d42101    ...!    LDRD     r2,r1,[r4,#4]
        0x08001166:    4790        .G      BLX      r2
        0x08001168:    6a20         j      LDR      r0,[r4,#0x20]
        0x0800116a:    1c40        @.      ADDS     r0,r0,#1
        0x0800116c:    6220         b      STR      r0,[r4,#0x20]
        0x0800116e:    f1b80801    ....    SUBS     r8,r8,#1
        0x08001172:    d2f2        ..      BCS      0x800115a ; _printf_fp_hex_real + 694
        0x08001174:    4620         F      MOV      r0,r4
        0x08001176:    f7fffa4c    ..L.    BL       _printf_post_padding ; 0x8000612
        0x0800117a:    b009        ..      ADD      sp,sp,#0x24
        0x0800117c:    2003        .       MOVS     r0,#3
        0x0800117e:    e8bd8ff0    ....    POP      {r4-r11,pc}
        0x08001182:    6a20         j      LDR      r0,[r4,#0x20]
        0x08001184:    4428        (D      ADD      r0,r0,r5
        0x08001186:    6220         b      STR      r0,[r4,#0x20]
        0x08001188:    e003        ..      B        0x8001192 ; _printf_fp_hex_real + 750
        0x0800118a:    e9d42101    ...!    LDRD     r2,r1,[r4,#4]
        0x0800118e:    2030        0       MOVS     r0,#0x30
        0x08001190:    4790        .G      BLX      r2
        0x08001192:    1e6d        m.      SUBS     r5,r5,#1
        0x08001194:    d3eb        ..      BCC      0x800116e ; _printf_fp_hex_real + 714
        0x08001196:    e7f8        ..      B        0x800118a ; _printf_fp_hex_real + 742
    $d
        0x08001198:    0000293d    =)..    DCD    10557
        0x0800119c:    fffffc02    ....    DCD    4294966274
    $t
    .text
    _printf_lcs_common
        0x080011a0:    b510        ..      PUSH     {r4,lr}
        0x080011a2:    6943        Ci      LDR      r3,[r0,#0x14]
        0x080011a4:    b113        ..      CBZ      r3,0x80011ac ; _printf_lcs_common + 12
        0x080011a6:    f3af8000    ....    NOP.W    
        0x080011aa:    e001        ..      B        0x80011b0 ; _printf_lcs_common + 16
        0x080011ac:    f7fffb08    ....    BL       _printf_wctomb ; 0x80007c0
        0x080011b0:    2001        .       MOVS     r0,#1
        0x080011b2:    bd10        ..      POP      {r4,pc}
    _printf_wchar
        0x080011b4:    8812        ..      LDRH     r2,[r2,#0]
        0x080011b6:    f1000124    ..$.    ADD      r1,r0,#0x24
        0x080011ba:    8482        ..      STRH     r2,[r0,#0x24]
        0x080011bc:    2200        ."      MOVS     r2,#0
        0x080011be:    84c2        ..      STRH     r2,[r0,#0x26]
        0x080011c0:    2201        ."      MOVS     r2,#1
        0x080011c2:    e7ed        ..      B        _printf_lcs_common ; 0x80011a0
    _printf_wstring
        0x080011c4:    6811        .h      LDR      r1,[r2,#0]
        0x080011c6:    f04f32ff    O..2    MOV      r2,#0xffffffff
        0x080011ca:    e7e9        ..      B        _printf_lcs_common ; 0x80011a0
    .text
    ferror
        0x080011cc:    7b00        .{      LDRB     r0,[r0,#0xc]
        0x080011ce:    f0000080    ....    AND      r0,r0,#0x80
        0x080011d2:    4770        pG      BX       lr
    .text
    _wcrtomb
        0x080011d4:    b570        p.      PUSH     {r4-r6,lr}
        0x080011d6:    4616        .F      MOV      r6,r2
        0x080011d8:    460c        .F      MOV      r4,r1
        0x080011da:    4605        .F      MOV      r5,r0
        0x080011dc:    f000f840    ..@.    BL       __rt_ctype_table ; 0x8001260
        0x080011e0:    6803        .h      LDR      r3,[r0,#0]
        0x080011e2:    f8930101    ....    LDRB     r0,[r3,#0x101]
        0x080011e6:    2801        .(      CMP      r0,#1
        0x080011e8:    d006        ..      BEQ      0x80011f8 ; _wcrtomb + 36
        0x080011ea:    2cff        .,      CMP      r4,#0xff
        0x080011ec:    d80f        ..      BHI      0x800120e ; _wcrtomb + 58
        0x080011ee:    5d18        .]      LDRB     r0,[r3,r4]
        0x080011f0:    b168        h.      CBZ      r0,0x800120e ; _wcrtomb + 58
        0x080011f2:    2001        .       MOVS     r0,#1
        0x080011f4:    702c        ,p      STRB     r4,[r5,#0]
        0x080011f6:    bd70        p.      POP      {r4-r6,pc}
        0x080011f8:    f8d30107    ....    LDR      r0,[r3,#0x107]
        0x080011fc:    4632        2F      MOV      r2,r6
        0x080011fe:    4621        !F      MOV      r1,r4
        0x08001200:    f2031307    ....    ADD      r3,r3,#0x107
        0x08001204:    4403        .D      ADD      r3,r3,r0
        0x08001206:    4628        (F      MOV      r0,r5
        0x08001208:    e8bd4070    ..p@    POP      {r4-r6,lr}
        0x0800120c:    4718        .G      BX       r3
        0x0800120e:    f04f30ff    O..0    MOV      r0,#0xffffffff
        0x08001212:    bd70        p.      POP      {r4-r6,pc}
    .text
    __user_setup_stackheap
        0x08001214:    4675        uF      MOV      r5,lr
        0x08001216:    f000f8eb    ....    BL       __user_libspace ; 0x80013f0
        0x0800121a:    46ae        .F      MOV      lr,r5
        0x0800121c:    0005        ..      MOVS     r5,r0
        0x0800121e:    4669        iF      MOV      r1,sp
        0x08001220:    4653        SF      MOV      r3,r10
        0x08001222:    f0200007     ...    BIC      r0,r0,#7
        0x08001226:    4685        .F      MOV      sp,r0
        0x08001228:    b018        ..      ADD      sp,sp,#0x60
        0x0800122a:    b520         .      PUSH     {r5,lr}
        0x0800122c:    f7fff834    ..4.    BL       __user_initial_stackheap ; 0x8000298
        0x08001230:    e8bd4020    .. @    POP      {r5,lr}
        0x08001234:    f04f0600    O...    MOV      r6,#0
        0x08001238:    f04f0700    O...    MOV      r7,#0
        0x0800123c:    f04f0800    O...    MOV      r8,#0
        0x08001240:    f04f0b00    O...    MOV      r11,#0
        0x08001244:    f0210107    !...    BIC      r1,r1,#7
        0x08001248:    46ac        .F      MOV      r12,r5
        0x0800124a:    e8ac09c0    ....    STM      r12!,{r6-r8,r11}
        0x0800124e:    e8ac09c0    ....    STM      r12!,{r6-r8,r11}
        0x08001252:    e8ac09c0    ....    STM      r12!,{r6-r8,r11}
        0x08001256:    e8ac09c0    ....    STM      r12!,{r6-r8,r11}
        0x0800125a:    468d        .F      MOV      sp,r1
        0x0800125c:    4770        pG      BX       lr
        0x0800125e:    0000        ..      MOVS     r0,r0
    .text
    __rt_ctype_table
        0x08001260:    b510        ..      PUSH     {r4,lr}
        0x08001262:    f000f805    ....    BL       __rt_locale ; 0x8001270
        0x08001266:    1d00        ..      ADDS     r0,r0,#4
        0x08001268:    bd10        ..      POP      {r4,pc}
        0x0800126a:    bf00        ..      NOP      
    $d
        0x0800126c:    000025f5    .%..    DCD    9717
    $t
    .text
    __rt_locale
        0x08001270:    4800        .H      LDR      r0,[pc,#0] ; [0x8001274] = 0x200032e4
        0x08001272:    4770        pG      BX       lr
    $d
        0x08001274:    200032e4    .2.     DCD    536883940
    $t
    .text
    _printf_fp_infnan
        0x08001278:    e92d41f0    -..A    PUSH     {r4-r8,lr}
        0x0800127c:    461f        .F      MOV      r7,r3
        0x0800127e:    4604        .F      MOV      r4,r0
        0x08001280:    2603        .&      MOVS     r6,#3
        0x08001282:    6801        .h      LDR      r1,[r0,#0]
        0x08001284:    2a07        .*      CMP      r2,#7
        0x08001286:    f4016000    ...`    AND      r0,r1,#0x800
        0x0800128a:    db04        ..      BLT      0x8001296 ; _printf_fp_infnan + 30
        0x0800128c:    b108        ..      CBZ      r0,0x8001292 ; _printf_fp_infnan + 26
        0x0800128e:    a516        ..      ADR      r5,{pc}+0x5a ; 0x80012e8
        0x08001290:    e005        ..      B        0x800129e ; _printf_fp_infnan + 38
        0x08001292:    a516        ..      ADR      r5,{pc}+0x5a ; 0x80012ec
        0x08001294:    e003        ..      B        0x800129e ; _printf_fp_infnan + 38
        0x08001296:    b108        ..      CBZ      r0,0x800129c ; _printf_fp_infnan + 36
        0x08001298:    a515        ..      ADR      r5,{pc}+0x58 ; 0x80012f0
        0x0800129a:    e000        ..      B        0x800129e ; _printf_fp_infnan + 38
        0x0800129c:    a515        ..      ADR      r5,{pc}+0x58 ; 0x80012f4
        0x0800129e:    f0210010    !...    BIC      r0,r1,#0x10
        0x080012a2:    6020         `      STR      r0,[r4,#0]
        0x080012a4:    69a0        .i      LDR      r0,[r4,#0x18]
        0x080012a6:    1ec0        ..      SUBS     r0,r0,#3
        0x080012a8:    61a0        .a      STR      r0,[r4,#0x18]
        0x080012aa:    b10f        ..      CBZ      r7,0x80012b0 ; _printf_fp_infnan + 56
        0x080012ac:    1e40        @.      SUBS     r0,r0,#1
        0x080012ae:    61a0        .a      STR      r0,[r4,#0x18]
        0x080012b0:    4620         F      MOV      r0,r4
        0x080012b2:    f7fff998    ....    BL       _printf_pre_padding ; 0x80005e6
        0x080012b6:    b14f        O.      CBZ      r7,0x80012cc ; _printf_fp_infnan + 84
        0x080012b8:    e9d42101    ...!    LDRD     r2,r1,[r4,#4]
        0x080012bc:    4638        8F      MOV      r0,r7
        0x080012be:    4790        .G      BLX      r2
        0x080012c0:    6a20         j      LDR      r0,[r4,#0x20]
        0x080012c2:    1c40        @.      ADDS     r0,r0,#1
        0x080012c4:    6220         b      STR      r0,[r4,#0x20]
        0x080012c6:    1cc0        ..      ADDS     r0,r0,#3
        0x080012c8:    6220         b      STR      r0,[r4,#0x20]
        0x080012ca:    e006        ..      B        0x80012da ; _printf_fp_infnan + 98
        0x080012cc:    6a20         j      LDR      r0,[r4,#0x20]
        0x080012ce:    e7fa        ..      B        0x80012c6 ; _printf_fp_infnan + 78
        0x080012d0:    e9d42101    ...!    LDRD     r2,r1,[r4,#4]
        0x080012d4:    f8150b01    ....    LDRB     r0,[r5],#1
        0x080012d8:    4790        .G      BLX      r2
        0x080012da:    1e76        v.      SUBS     r6,r6,#1
        0x080012dc:    d2f8        ..      BCS      0x80012d0 ; _printf_fp_infnan + 88
        0x080012de:    4620         F      MOV      r0,r4
        0x080012e0:    f7fff997    ....    BL       _printf_post_padding ; 0x8000612
        0x080012e4:    e8bd81f0    ....    POP      {r4-r8,pc}
    $d
        0x080012e8:    004e414e    NAN.    DCD    5128526
        0x080012ec:    006e616e    nan.    DCD    7233902
        0x080012f0:    00464e49    INF.    DCD    4607561
        0x080012f4:    00666e69    inf.    DCD    6712937
    $t
    .text
    _btod_etento
        0x080012f8:    e92d47f0    -..G    PUSH     {r4-r10,lr}
        0x080012fc:    4681        .F      MOV      r9,r0
        0x080012fe:    4616        .F      MOV      r6,r2
        0x08001300:    b08a        ..      SUB      sp,sp,#0x28
        0x08001302:    4835        5H      LDR      r0,[pc,#212] ; [0x80013d8] = 0x2674
        0x08001304:    4478        xD      ADD      r0,r0,pc
        0x08001306:    c80d        ..      LDM      r0,{r0,r2,r3}
        0x08001308:    e88d000d    ....    STM      sp,{r0,r2,r3}
        0x0800130c:    4832        2H      LDR      r0,[pc,#200] ; [0x80013d8] = 0x2674
        0x0800130e:    4478        xD      ADD      r0,r0,pc
        0x08001310:    1c80        ..      ADDS     r0,r0,#2
        0x08001312:    ac03        ..      ADD      r4,sp,#0xc
        0x08001314:    c80d        ..      LDM      r0,{r0,r2,r3}
        0x08001316:    e884000d    ....    STM      r4,{r0,r2,r3}
        0x0800131a:    f641309b    A..0    MOV      r0,#0x1b9b
        0x0800131e:    4408        .D      ADD      r0,r0,r1
        0x08001320:    2137        7!      MOVS     r1,#0x37
        0x08001322:    fb90f2f1    ....    SDIV     r2,r0,r1
        0x08001326:    fb90f5f1    ....    SDIV     r5,r0,r1
        0x0800132a:    f1a50580    ....    SUB      r5,r5,#0x80
        0x0800132e:    fb010412    ....    MLS      r4,r1,r2,r0
        0x08001332:    3c1b        .<      SUBS     r4,r4,#0x1b
        0x08001334:    d502        ..      BPL      0x800133c ; _btod_etento + 68
        0x08001336:    4264        dB      RSBS     r4,r4,#0
        0x08001338:    2001        .       MOVS     r0,#1
        0x0800133a:    e000        ..      B        0x800133e ; _btod_etento + 70
        0x0800133c:    2000        .       MOVS     r0,#0
        0x0800133e:    f8dfa098    ....    LDR      r10,[pc,#152] ; [0x80013d8] = 0x2674
        0x08001342:    4680        .F      MOV      r8,r0
        0x08001344:    2700        .'      MOVS     r7,#0
        0x08001346:    44fa        .D      ADD      r10,r10,pc
        0x08001348:    f1aa0abe    ....    SUB      r10,r10,#0xbe
        0x0800134c:    e00e        ..      B        0x800136c ; _btod_etento + 116
        0x0800134e:    07e0        ..      LSLS     r0,r4,#31
        0x08001350:    d00a        ..      BEQ      0x8001368 ; _btod_etento + 112
        0x08001352:    4632        2F      MOV      r2,r6
        0x08001354:    4668        hF      MOV      r0,sp
        0x08001356:    eb070147    ..G.    ADD      r1,r7,r7,LSL #1
        0x0800135a:    2301        .#      MOVS     r3,#1
        0x0800135c:    eb0a0181    ....    ADD      r1,r10,r1,LSL #2
        0x08001360:    f000fb1b    ....    BL       _btod_emul ; 0x800199a
        0x08001364:    e88d0007    ....    STM      sp,{r0-r2}
        0x08001368:    1064        d.      ASRS     r4,r4,#1
        0x0800136a:    1c7f        ..      ADDS     r7,r7,#1
        0x0800136c:    2c00        .,      CMP      r4,#0
        0x0800136e:    d1ee        ..      BNE      0x800134e ; _btod_etento + 86
        0x08001370:    4f19        .O      LDR      r7,[pc,#100] ; [0x80013d8] = 0x2674
        0x08001372:    447f        .D      ADD      r7,r7,pc
        0x08001374:    3fae        .?      SUBS     r7,r7,#0xae
        0x08001376:    e019        ..      B        0x80013ac ; _btod_etento + 180
        0x08001378:    07e8        ..      LSLS     r0,r5,#31
        0x0800137a:    d015        ..      BEQ      0x80013a8 ; _btod_etento + 176
        0x0800137c:    eb071004    ....    ADD      r0,r7,r4,LSL #4
        0x08001380:    f10d0a18    ....    ADD      r10,sp,#0x18
        0x08001384:    e890000e    ....    LDM      r0,{r1-r3}
        0x08001388:    e88a000e    ....    STM      r10,{r1-r3}
        0x0800138c:    68c0        .h      LDR      r0,[r0,#0xc]
        0x0800138e:    42f0        .B      CMN      r0,r6
        0x08001390:    d101        ..      BNE      0x8001396 ; _btod_etento + 158
        0x08001392:    1998        ..      ADDS     r0,r3,r6
        0x08001394:    9008        ..      STR      r0,[sp,#0x20]
        0x08001396:    4632        2F      MOV      r2,r6
        0x08001398:    2301        .#      MOVS     r3,#1
        0x0800139a:    a906        ..      ADD      r1,sp,#0x18
        0x0800139c:    a803        ..      ADD      r0,sp,#0xc
        0x0800139e:    f000fafc    ....    BL       _btod_emul ; 0x800199a
        0x080013a2:    ab03        ..      ADD      r3,sp,#0xc
        0x080013a4:    e8830007    ....    STM      r3,{r0-r2}
        0x080013a8:    106d        m.      ASRS     r5,r5,#1
        0x080013aa:    1c64        d.      ADDS     r4,r4,#1
        0x080013ac:    2d00        .-      CMP      r5,#0
        0x080013ae:    d1e3        ..      BNE      0x8001378 ; _btod_etento + 128
        0x080013b0:    f04f0301    O...    MOV      r3,#1
        0x080013b4:    4632        2F      MOV      r2,r6
        0x080013b6:    4669        iF      MOV      r1,sp
        0x080013b8:    f1b80f00    ....    CMP      r8,#0
        0x080013bc:    a803        ..      ADD      r0,sp,#0xc
        0x080013be:    d002        ..      BEQ      0x80013c6 ; _btod_etento + 206
        0x080013c0:    f000fad6    ....    BL       _btod_ediv ; 0x8001970
        0x080013c4:    e001        ..      B        0x80013ca ; _btod_etento + 210
        0x080013c6:    f000fae8    ....    BL       _btod_emul ; 0x800199a
        0x080013ca:    e9c90100    ....    STRD     r0,r1,[r9,#0]
        0x080013ce:    f8c92008    ...     STR      r2,[r9,#8]
        0x080013d2:    b00a        ..      ADD      sp,sp,#0x28
        0x080013d4:    e8bd87f0    ....    POP      {r4-r10,pc}
    $d
        0x080013d8:    00002674    t&..    DCD    9844
    $t
    .text
    exit
        0x080013dc:    b510        ..      PUSH     {r4,lr}
        0x080013de:    4604        .F      MOV      r4,r0
        0x080013e0:    f3af8000    ....    NOP.W    
        0x080013e4:    4620         F      MOV      r0,r4
        0x080013e6:    e8bd4010    ...@    POP      {r4,lr}
        0x080013ea:    f7febf3e    ..>.    B        __rt_exit ; 0x800026a
        0x080013ee:    0000        ..      MOVS     r0,r0
    .text
    __user_libspace
    __user_perproc_libspace
    __user_perthread_libspace
        0x080013f0:    4800        .H      LDR      r0,[pc,#0] ; [0x80013f4] = 0x200032c4
        0x080013f2:    4770        pG      BX       lr
    $d
        0x080013f4:    200032c4    .2.     DCD    536883908
    $t
    .text
    strcmp
        0x080013f8:    f04f3c01    O..<    MOV      r12,#0x1010101
        0x080013fc:    f8502b04    P..+    LDR      r2,[r0],#4
        0x08001400:    f8513b04    Q..;    LDR      r3,[r1],#4
        0x08001404:    429a        .B      CMP      r2,r3
        0x08001406:    d121        !.      BNE      0x800144c ; strcmp + 84
        0x08001408:    eba2030c    ....    SUB      r3,r2,r12
        0x0800140c:    4393        .C      BICS     r3,r3,r2
        0x0800140e:    ea1313cc    ....    ANDS     r3,r3,r12,LSL #7
        0x08001412:    d117        ..      BNE      0x8001444 ; strcmp + 76
        0x08001414:    f8502b04    P..+    LDR      r2,[r0],#4
        0x08001418:    f8513b04    Q..;    LDR      r3,[r1],#4
        0x0800141c:    429a        .B      CMP      r2,r3
        0x0800141e:    d115        ..      BNE      0x800144c ; strcmp + 84
        0x08001420:    eba2030c    ....    SUB      r3,r2,r12
        0x08001424:    4393        .C      BICS     r3,r3,r2
        0x08001426:    ea1313cc    ....    ANDS     r3,r3,r12,LSL #7
        0x0800142a:    d10b        ..      BNE      0x8001444 ; strcmp + 76
        0x0800142c:    f8502b04    P..+    LDR      r2,[r0],#4
        0x08001430:    f8513b04    Q..;    LDR      r3,[r1],#4
        0x08001434:    429a        .B      CMP      r2,r3
        0x08001436:    d109        ..      BNE      0x800144c ; strcmp + 84
        0x08001438:    eba2030c    ....    SUB      r3,r2,r12
        0x0800143c:    4393        .C      BICS     r3,r3,r2
        0x0800143e:    ea1313cc    ....    ANDS     r3,r3,r12,LSL #7
        0x08001442:    d0db        ..      BEQ      0x80013fc ; strcmp + 4
        0x08001444:    f04f0000    O...    MOV      r0,#0
        0x08001448:    4770        pG      BX       lr
        0x0800144a:    bf00        ..      NOP      
        0x0800144c:    1ad0        ..      SUBS     r0,r2,r3
        0x0800144e:    ba01        ..      REV      r1,r0
        0x08001450:    fab1f181    ....    CLZ      r1,r1
        0x08001454:    f0010118    ....    AND      r1,r1,#0x18
        0x08001458:    fa22f001    "...    LSR      r0,r2,r1
        0x0800145c:    40cb        .@      LSRS     r3,r3,r1
        0x0800145e:    f1c10120    .. .    RSB      r1,r1,#0x20
        0x08001462:    b2db        ..      UXTB     r3,r3
        0x08001464:    b2c0        ..      UXTB     r0,r0
        0x08001466:    1ac0        ..      SUBS     r0,r0,r3
        0x08001468:    fa2cf301    ,...    LSR      r3,r12,r1
        0x0800146c:    1ad1        ..      SUBS     r1,r2,r3
        0x0800146e:    4391        .C      BICS     r1,r1,r2
        0x08001470:    ea1111c3    ....    ANDS     r1,r1,r3,LSL #7
        0x08001474:    d1e6        ..      BNE      0x8001444 ; strcmp + 76
        0x08001476:    4770        pG      BX       lr
    CL$$btod_d2e
    _btod_d2e
        0x08001478:    ea5f0c40    _.@.    LSLS     r12,r0,#1
        0x0800147c:    bf08        ..      IT       EQ
        0x0800147e:    f0910f00    ....    TEQEQ    r1,#0
        0x08001482:    ea4f238c    O..#    LSL      r3,r12,#10
        0x08001486:    ea4f22c1    O.."    LSL      r2,r1,#11
        0x0800148a:    ea435151    C.QQ    ORR      r1,r3,r1,LSR #21
        0x0800148e:    ea4f501c    O..P    LSR      r0,r12,#20
        0x08001492:    bf18        ..      IT       NE
        0x08001494:    f50040f0    ...@    ADDNE    r0,r0,#0x7800
        0x08001498:    ea4f0030    O.0.    RRX      r0,r0
        0x0800149c:    bf18        ..      IT       NE
        0x0800149e:    f0414100    A..A    ORRNE    r1,r1,#0x80000000
        0x080014a2:    ea5f5c6c    _.l\    ASRS     r12,r12,#21
        0x080014a6:    f0008029    ..).    BEQ.W    _d2e_norm_op1 ; 0x80014fc
        0x080014aa:    f1bc3fff    ...?    CMP      r12,#0xffffffff
        0x080014ae:    bf08        ..      IT       EQ
        0x080014b0:    f0404080    @..@    ORREQ    r0,r0,#0x40000000
        0x080014b4:    4770        pG      BX       lr
    CL$$btod_d2e_denorm_low
    _d2e_denorm_low
        0x080014b6:    0c13        ..      LSRS     r3,r2,#16
        0x080014b8:    bf06        ..      ITTE     EQ
        0x080014ba:    0412        ..      LSLEQ    r2,r2,#16
        0x080014bc:    f04f0c10    O...    MOVEQ    r12,#0x10
        0x080014c0:    f04f0c00    O...    MOVNE    r12,#0
        0x080014c4:    0e13        ..      LSRS     r3,r2,#24
        0x080014c6:    bf04        ..      ITT      EQ
        0x080014c8:    0212        ..      LSLEQ    r2,r2,#8
        0x080014ca:    f10c0c08    ....    ADDEQ    r12,r12,#8
        0x080014ce:    0f13        ..      LSRS     r3,r2,#28
        0x080014d0:    bf04        ..      ITT      EQ
        0x080014d2:    0112        ..      LSLEQ    r2,r2,#4
        0x080014d4:    f10c0c04    ....    ADDEQ    r12,r12,#4
        0x080014d8:    0f93        ..      LSRS     r3,r2,#30
        0x080014da:    bf04        ..      ITT      EQ
        0x080014dc:    0092        ..      LSLEQ    r2,r2,#2
        0x080014de:    f10c0c02    ....    ADDEQ    r12,r12,#2
        0x080014e2:    0fd3        ..      LSRS     r3,r2,#31
        0x080014e4:    bf04        ..      ITT      EQ
        0x080014e6:    0052        R.      LSLEQ    r2,r2,#1
        0x080014e8:    f10c0c01    ....    ADDEQ    r12,r12,#1
        0x080014ec:    4611        .F      MOV      r1,r2
        0x080014ee:    f04f0200    O...    MOV      r2,#0
        0x080014f2:    f1a0001f    ....    SUB      r0,r0,#0x1f
        0x080014f6:    eba0000c    ....    SUB      r0,r0,r12
        0x080014fa:    4770        pG      BX       lr
    CL$$btod_d2e_norm_op1
    _d2e_norm_op1
        0x080014fc:    f0114f00    ...O    TST      r1,#0x80000000
        0x08001500:    bf08        ..      IT       EQ
        0x08001502:    4770        pG      BXEQ     lr
        0x08001504:    f0314100    1..A    BICS     r1,r1,#0x80000000
        0x08001508:    f43fafd5    ?...    BEQ.W    _d2e_denorm_low ; 0x80014b6
        0x0800150c:    0c0b        ..      LSRS     r3,r1,#16
        0x0800150e:    bf06        ..      ITTE     EQ
        0x08001510:    0409        ..      LSLEQ    r1,r1,#16
        0x08001512:    f04f0c10    O...    MOVEQ    r12,#0x10
        0x08001516:    f04f0c00    O...    MOVNE    r12,#0
        0x0800151a:    0e0b        ..      LSRS     r3,r1,#24
        0x0800151c:    bf04        ..      ITT      EQ
        0x0800151e:    0209        ..      LSLEQ    r1,r1,#8
        0x08001520:    f10c0c08    ....    ADDEQ    r12,r12,#8
        0x08001524:    0f0b        ..      LSRS     r3,r1,#28
        0x08001526:    bf04        ..      ITT      EQ
        0x08001528:    0109        ..      LSLEQ    r1,r1,#4
        0x0800152a:    f10c0c04    ....    ADDEQ    r12,r12,#4
        0x0800152e:    0f8b        ..      LSRS     r3,r1,#30
        0x08001530:    bf04        ..      ITT      EQ
        0x08001532:    0089        ..      LSLEQ    r1,r1,#2
        0x08001534:    f10c0c02    ....    ADDEQ    r12,r12,#2
        0x08001538:    0fcb        ..      LSRS     r3,r1,#31
        0x0800153a:    bf04        ..      ITT      EQ
        0x0800153c:    0049        I.      LSLEQ    r1,r1,#1
        0x0800153e:    f10c0c01    ....    ADDEQ    r12,r12,#1
        0x08001542:    f1cc0320    .. .    RSB      r3,r12,#0x20
        0x08001546:    eba0000c    ....    SUB      r0,r0,r12
        0x0800154a:    fa22f303    "...    LSR      r3,r2,r3
        0x0800154e:    fa02f20c    ....    LSL      r2,r2,r12
        0x08001552:    ea410103    A...    ORR      r1,r1,r3
        0x08001556:    f1000001    ....    ADD      r0,r0,#1
        0x0800155a:    4770        pG      BX       lr
    CL$$btod_div_common
    __btod_div_common
        0x0800155c:    f0204c7f     ..L    BIC      r12,r0,#0xff000000
        0x08001560:    ea800003    ....    EOR      r0,r0,r3
        0x08001564:    f023477f    #..G    BIC      r7,r3,#0xff000000
        0x08001568:    ebac0307    ....    SUB      r3,r12,r7
        0x0800156c:    f503537c    ..|S    ADD      r3,r3,#0x3f00
        0x08001570:    f0004000    ...@    AND      r0,r0,#0x80000000
        0x08001574:    f10303ff    ....    ADD      r3,r3,#0xff
        0x08001578:    e92d4980    -..I    PUSH     {r7,r8,r11,lr}
        0x0800157c:    ea4f4b15    O..K    LSR      r11,r5,#16
        0x08001580:    b409        ..      PUSH     {r0,r3}
        0x08001582:    ea4f4314    O..C    LSR      r3,r4,#16
        0x08001586:    ea254e0b    %..N    BIC      lr,r5,r11,LSL #16
        0x0800158a:    ea244803    $..H    BIC      r8,r4,r3,LSL #16
        0x0800158e:    f20f2604    ...&    ADR.W    r6,{pc}+0x206 ; 0x8001794
        0x08001592:    eb062713    ...'    ADD      r7,r6,r3,LSR #8
        0x08001596:    0849        I.      LSRS     r1,r1,#1
        0x08001598:    783e        >x      LDRB     r6,[r7,#0]
        0x0800159a:    ea5f0232    _.2.    RRXS     r2,r2
        0x0800159e:    fb036706    ...g    MLA      r7,r3,r6,r6
        0x080015a2:    f5c70700    ....    RSB      r7,r7,#0x800000
        0x080015a6:    fb07f606    ....    MUL      r6,r7,r6
        0x080015aa:    ea4f3754    O.T7    LSR      r7,r4,#13
        0x080015ae:    ea4f46d6    O..F    LSR      r6,r6,#19
        0x080015b2:    f1060602    ....    ADD      r6,r6,#2
        0x080015b6:    fb076c06    ...l    MLA      r12,r7,r6,r6
        0x080015ba:    f1cc5c00    ...\    RSB      r12,r12,#0x20000000
        0x080015be:    ea4f471c    O..G    LSR      r7,r12,#16
        0x080015c2:    ea2c4c07    ,..L    BIC      r12,r12,r7,LSL #16
        0x080015c6:    fb07f406    ....    MUL      r4,r7,r6
        0x080015ca:    fb0cf506    ....    MUL      r5,r12,r6
        0x080015ce:    eb044615    ...F    ADD      r6,r4,r5,LSR #16
        0x080015d2:    ea4f1696    O...    LSR      r6,r6,#6
        0x080015d6:    bf34        4.      ITE      CC
        0x080015d8:    2000        .       MOVCC    r0,#0
        0x080015da:    f04f4000    O..@    MOVCS    r0,#0x80000000
        0x080015de:    ea4f37d1    O..7    LSR      r7,r1,#15
        0x080015e2:    fb06fc07    ....    MUL      r12,r6,r7
        0x080015e6:    ea4f4c1c    O..L    LSR      r12,r12,#16
        0x080015ea:    fb0cf70b    ....    MUL      r7,r12,r11
        0x080015ee:    1bd2        ..      SUBS     r2,r2,r7
        0x080015f0:    fb03f70c    ....    MUL      r7,r3,r12
        0x080015f4:    eb610107    a...    SBC      r1,r1,r7
        0x080015f8:    fb0cf70e    ....    MUL      r7,r12,lr
        0x080015fc:    ebb04007    ...@    SUBS     r0,r0,r7,LSL #16
        0x08001600:    eb724217    r..B    SBCS     r2,r2,r7,LSR #16
        0x08001604:    fb0cf708    ....    MUL      r7,r12,r8
        0x08001608:    bf34        4.      ITE      CC
        0x0800160a:    eba24207    ...B    SUBCC    r2,r2,r7,LSL #16
        0x0800160e:    ebb24207    ...B    SUBSCS   r2,r2,r7,LSL #16
        0x08001612:    eb614117    a..A    SBC      r1,r1,r7,LSR #16
        0x08001616:    ea4f440c    O..D    LSL      r4,r12,#16
        0x0800161a:    ea4f0791    O...    LSR      r7,r1,#2
        0x0800161e:    fb06fc07    ....    MUL      r12,r6,r7
        0x08001622:    ea4f4c1c    O..L    LSR      r12,r12,#16
        0x08001626:    fb0cf70b    ....    MUL      r7,r12,r11
        0x0800162a:    ebb040c7    ...@    SUBS     r0,r0,r7,LSL #19
        0x0800162e:    eb723257    r.W2    SBCS     r2,r2,r7,LSR #13
        0x08001632:    fb03f70c    ....    MUL      r7,r3,r12
        0x08001636:    bf34        4.      ITE      CC
        0x08001638:    eba242c7    ...B    SUBCC    r2,r2,r7,LSL #19
        0x0800163c:    ebb242c7    ...B    SUBSCS   r2,r2,r7,LSL #19
        0x08001640:    eb613157    a.W1    SBC      r1,r1,r7,LSR #13
        0x08001644:    fb0cf70e    ....    MUL      r7,r12,lr
        0x08001648:    ebb000c7    ....    SUBS     r0,r0,r7,LSL #3
        0x0800164c:    eb727257    r.Wr    SBCS     r2,r2,r7,LSR #29
        0x08001650:    fb0cf708    ....    MUL      r7,r12,r8
        0x08001654:    bf34        4.      ITE      CC
        0x08001656:    eba202c7    ....    SUBCC    r2,r2,r7,LSL #3
        0x0800165a:    ebb202c7    ....    SUBSCS   r2,r2,r7,LSL #3
        0x0800165e:    eb617157    a.Wq    SBC      r1,r1,r7,LSR #29
        0x08001662:    9f03        ..      LDR      r7,[sp,#0xc]
        0x08001664:    ea4f6181    O..a    LSL      r1,r1,#26
        0x08001668:    ea411192    A...    ORR      r1,r1,r2,LSR #6
        0x0800166c:    eb0404cc    ....    ADD      r4,r4,r12,LSL #3
        0x08001670:    ea4f37d1    O..7    LSR      r7,r1,#15
        0x08001674:    ea4f6282    O..b    LSL      r2,r2,#26
        0x08001678:    fb06fc07    ....    MUL      r12,r6,r7
        0x0800167c:    ea421290    B...    ORR      r2,r2,r0,LSR #6
        0x08001680:    ea4f6080    O..`    LSL      r0,r0,#26
        0x08001684:    ea4f4c1c    O..L    LSR      r12,r12,#16
        0x08001688:    fb0cf70b    ....    MUL      r7,r12,r11
        0x0800168c:    1bd2        ..      SUBS     r2,r2,r7
        0x0800168e:    fb03f70c    ....    MUL      r7,r3,r12
        0x08001692:    eb610107    a...    SBC      r1,r1,r7
        0x08001696:    fb0cf70e    ....    MUL      r7,r12,lr
        0x0800169a:    ebb04007    ...@    SUBS     r0,r0,r7,LSL #16
        0x0800169e:    eb724217    r..B    SBCS     r2,r2,r7,LSR #16
        0x080016a2:    fb0cf708    ....    MUL      r7,r12,r8
        0x080016a6:    bf34        4.      ITE      CC
        0x080016a8:    eba24207    ...B    SUBCC    r2,r2,r7,LSL #16
        0x080016ac:    ebb24207    ...B    SUBSCS   r2,r2,r7,LSL #16
        0x080016b0:    eb614117    a..A    SBC      r1,r1,r7,LSR #16
        0x080016b4:    ea4f558c    O..U    LSL      r5,r12,#22
        0x080016b8:    ea4f0791    O...    LSR      r7,r1,#2
        0x080016bc:    eb04249c    ...$    ADD      r4,r4,r12,LSR #10
        0x080016c0:    fb06fc07    ....    MUL      r12,r6,r7
        0x080016c4:    ea4f4c1c    O..L    LSR      r12,r12,#16
        0x080016c8:    fb0cf70b    ....    MUL      r7,r12,r11
        0x080016cc:    ebb040c7    ...@    SUBS     r0,r0,r7,LSL #19
        0x080016d0:    eb723257    r.W2    SBCS     r2,r2,r7,LSR #13
        0x080016d4:    fb03f70c    ....    MUL      r7,r3,r12
        0x080016d8:    bf34        4.      ITE      CC
        0x080016da:    eba242c7    ...B    SUBCC    r2,r2,r7,LSL #19
        0x080016de:    ebb242c7    ...B    SUBSCS   r2,r2,r7,LSL #19
        0x080016e2:    eb613157    a.W1    SBC      r1,r1,r7,LSR #13
        0x080016e6:    fb0cf70e    ....    MUL      r7,r12,lr
        0x080016ea:    ebb000c7    ....    SUBS     r0,r0,r7,LSL #3
        0x080016ee:    eb727257    r.Wr    SBCS     r2,r2,r7,LSR #29
        0x080016f2:    fb0cf708    ....    MUL      r7,r12,r8
        0x080016f6:    bf34        4.      ITE      CC
        0x080016f8:    eba202c7    ....    SUBCC    r2,r2,r7,LSL #3
        0x080016fc:    ebb202c7    ....    SUBSCS   r2,r2,r7,LSL #3
        0x08001700:    eb617157    a.Wq    SBC      r1,r1,r7,LSR #29
        0x08001704:    eb15254c    ..L%    ADDS     r5,r5,r12,LSL #9
        0x08001708:    ea4f6181    O..a    LSL      r1,r1,#26
        0x0800170c:    ea411192    A...    ORR      r1,r1,r2,LSR #6
        0x08001710:    ea4f6282    O..b    LSL      r2,r2,#26
        0x08001714:    ea4f37d1    O..7    LSR      r7,r1,#15
        0x08001718:    ea421290    B...    ORR      r2,r2,r0,LSR #6
        0x0800171c:    fb06fc07    ....    MUL      r12,r6,r7
        0x08001720:    f1440400    D...    ADC      r4,r4,#0
        0x08001724:    ea4f6080    O..`    LSL      r0,r0,#26
        0x08001728:    ea4f4c1c    O..L    LSR      r12,r12,#16
        0x0800172c:    fb0cf70b    ....    MUL      r7,r12,r11
        0x08001730:    1bd2        ..      SUBS     r2,r2,r7
        0x08001732:    fb03f70c    ....    MUL      r7,r3,r12
        0x08001736:    eb610107    a...    SBC      r1,r1,r7
        0x0800173a:    fb0cf70e    ....    MUL      r7,r12,lr
        0x0800173e:    ebb04007    ...@    SUBS     r0,r0,r7,LSL #16
        0x08001742:    eb724217    r..B    SBCS     r2,r2,r7,LSR #16
        0x08001746:    fb0cf708    ....    MUL      r7,r12,r8
        0x0800174a:    bf34        4.      ITE      CC
        0x0800174c:    eba24207    ...B    SUBCC    r2,r2,r7,LSL #16
        0x08001750:    ebb24207    ...B    SUBSCS   r2,r2,r7,LSL #16
        0x08001754:    eb614117    a..A    SBC      r1,r1,r7,LSR #16
        0x08001758:    eb15151c    ....    ADDS     r5,r5,r12,LSR #4
        0x0800175c:    ea4f3181    O..1    LSL      r1,r1,#14
        0x08001760:    ea414192    A..A    ORR      r1,r1,r2,LSR #18
        0x08001764:    ea4f3282    O..2    LSL      r2,r2,#14
        0x08001768:    ea424290    B..B    ORR      r2,r2,r0,LSR #18
        0x0800176c:    ea4f3080    O..0    LSL      r0,r0,#14
        0x08001770:    ea4f760c    O..v    LSL      r6,r12,#28
        0x08001774:    f1440400    D...    ADC      r4,r4,#0
        0x08001778:    ea484303    H..C    ORR      r3,r8,r3,LSL #16
        0x0800177c:    ea4e480b    N..H    ORR      r8,lr,r11,LSL #16
        0x08001780:    f04f0e00    O...    MOV      lr,#0
        0x08001784:    ebb20c08    ....    SUBS     r12,r2,r8
        0x08001788:    eb710703    q...    SBCS     r7,r1,r3
        0x0800178c:    bf24        $.      ITT      CS
        0x0800178e:    4662        bF      MOVCS    r2,r12
        0x08001790:    4639        9F      MOVCS    r1,r7
        0x08001792:    eb4e0e0e    N...    ADC      lr,lr,lr
        0x08001796:    f04f0b00    O...    MOV      r11,#0
        0x0800179a:    1800        ..      ADDS     r0,r0,r0
        0x0800179c:    4152        RA      ADCS     r2,r2,r2
        0x0800179e:    4149        IA      ADCS     r1,r1,r1
        0x080017a0:    eb4b0b0b    K...    ADC      r11,r11,r11
        0x080017a4:    ebb20c08    ....    SUBS     r12,r2,r8
        0x080017a8:    eb710703    q...    SBCS     r7,r1,r3
        0x080017ac:    f17b0b00    {...    SBCS     r11,r11,#0
        0x080017b0:    bf24        $.      ITT      CS
        0x080017b2:    4662        bF      MOVCS    r2,r12
        0x080017b4:    4639        9F      MOVCS    r1,r7
        0x080017b6:    eb4e0e0e    N...    ADC      lr,lr,lr
        0x080017ba:    f04f0b00    O...    MOV      r11,#0
        0x080017be:    1800        ..      ADDS     r0,r0,r0
        0x080017c0:    4152        RA      ADCS     r2,r2,r2
        0x080017c2:    4149        IA      ADCS     r1,r1,r1
        0x080017c4:    eb4b0b0b    K...    ADC      r11,r11,r11
        0x080017c8:    ebb20c08    ....    SUBS     r12,r2,r8
        0x080017cc:    eb710703    q...    SBCS     r7,r1,r3
        0x080017d0:    f17b0b00    {...    SBCS     r11,r11,#0
        0x080017d4:    bf24        $.      ITT      CS
        0x080017d6:    4662        bF      MOVCS    r2,r12
        0x080017d8:    4639        9F      MOVCS    r1,r7
        0x080017da:    eb4e0e0e    N...    ADC      lr,lr,lr
        0x080017de:    ea510702    Q...    ORRS     r7,r1,r2
        0x080017e2:    bf18        ..      IT       NE
        0x080017e4:    f0460601    F...    ORRNE    r6,r6,#1
        0x080017e8:    eb16760e    ...v    ADDS     r6,r6,lr,LSL #28
        0x080017ec:    f1550200    U...    ADCS     r2,r5,#0
        0x080017f0:    f1540100    T...    ADCS     r1,r4,#0
        0x080017f4:    d503        ..      BPL      0x80017fe ; __btod_div_common + 674
        0x080017f6:    e8bd0189    ....    POP      {r0,r3,r7,r8}
        0x080017fa:    e8bd8800    ....    POP      {r11,pc}
        0x080017fe:    e8bd0189    ....    POP      {r0,r3,r7,r8}
        0x08001802:    e8bd4800    ...H    POP      {r11,lr}
        0x08001806:    19b6        ..      ADDS     r6,r6,r6
        0x08001808:    4152        RA      ADCS     r2,r2,r2
        0x0800180a:    eb410101    A...    ADC      r1,r1,r1
        0x0800180e:    f1a30301    ....    SUB      r3,r3,#1
        0x08001812:    4770        pG      BX       lr
    $d
        0x08001814:    7e7f8080    ...~    DCD    2122285184
        0x08001818:    7a7b7c7d    }|{z    DCD    2054913149
        0x0800181c:    76777879    yxwv    DCD    1987541113
        0x08001820:    73747576    vuts    DCD    1937012086
        0x08001824:    70717172    rqqp    DCD    1886482802
        0x08001828:    6d6e6e6f    onnm    DCD    1835953775
        0x0800182c:    6a6b6c6c    llkj    DCD    1785425004
        0x08001830:    6868696a    jihh    DCD    1751673194
        0x08001834:    65666667    gffe    DCD    1701209703
        0x08001838:    63636464    ddcc    DCD    1667458148
        0x0800183c:    60616162    baa`    DCD    1616994658
        0x08001840:    5e5f5f60    `__^    DCD    1583308640
        0x08001844:    5c5d5d5e    ^]]\    DCD    1549622622
        0x08001848:    5a5b5b5c    \[[Z    DCD    1515936604
        0x0800184c:    5859595a    ZYYX    DCD    1482250586
        0x08001850:    56575758    XWWV    DCD    1448564568
        0x08001854:    55555556    VUUU    DCD    1431655766
        0x08001858:    53535454    TTSS    DCD    1397970004
        0x0800185c:    51525252    RRRQ    DCD    1364349522
        0x08001860:    50505051    QPPP    DCD    1347440721
        0x08001864:    4e4f4f4f    OOON    DCD    1313820495
        0x08001868:    4d4d4d4e    NMMM    DCD    1296911694
        0x0800186c:    4b4c4c4c    LLLK    DCD    1263291468
        0x08001870:    4a4a4b4b    KKJJ    DCD    1246382923
        0x08001874:    4949494a    JIII    DCD    1229539658
        0x08001878:    47484848    HHHG    DCD    1195919432
        0x0800187c:    46474747    GGGF    DCD    1179076423
        0x08001880:    45454646    FFEE    DCD    1162167878
        0x08001884:    44444445    EDDD    DCD    1145324613
        0x08001888:    43434344    DCCC    DCD    1128481604
        0x0800188c:    42424243    CBBB    DCD    1111638595
        0x08001890:    41414142    BAAA    DCD    1094795586
    $t
    CL$$btod_e2e
    _e2e
        0x08001894:    2b00        .+      CMP      r3,#0
        0x08001896:    469c        .F      MOV      r12,r3
        0x08001898:    d430        0.      BMI      0x80018fc ; _e2e + 104
        0x0800189a:    0077        w.      LSLS     r7,r6,#1
        0x0800189c:    d02b        +.      BEQ      0x80018f6 ; _e2e + 98
        0x0800189e:    b51c        ..      PUSH     {r2-r4,lr}
        0x080018a0:    ea4f0737    O.7.    RRX      r7,r7
        0x080018a4:    b403        ..      PUSH     {r0,r1}
        0x080018a6:    f04f0010    O...    MOV      r0,#0x10
        0x080018aa:    f04f0110    O...    MOV      r1,#0x10
        0x080018ae:    f1ba0f00    ....    CMP      r10,#0
        0x080018b2:    d006        ..      BEQ      0x80018c2 ; _e2e + 46
        0x080018b4:    f1bc0f00    ....    CMP      r12,#0
        0x080018b8:    bfdc        ..      ITT      LE
        0x080018ba:    f0400008    @...    ORRLE    r0,r0,#8
        0x080018be:    f0400108    @...    ORRLE    r1,r0,#8
        0x080018c2:    f04f0000    O...    MOV      r0,#0
        0x080018c6:    bc0f        ..      POP      {r0-r3}
        0x080018c8:    e8bd4010    ...@    POP      {r4,lr}
        0x080018cc:    f10b0b01    ....    ADD      r11,r11,#1
        0x080018d0:    f1bb0f01    ....    CMP      r11,#1
        0x080018d4:    bf08        ..      IT       EQ
        0x080018d6:    ea5f0717    _...    LSRSEQ   r7,r7,#32
        0x080018da:    bf22        ".      ITTT     CS
        0x080018dc:    f1120201    ....    ADDSCS   r2,r2,#1
        0x080018e0:    f1110101    ....    ADDSCS   r1,r1,#1
        0x080018e4:    f04f4100    O..A    MOVCS    r1,#0x80000000
        0x080018e8:    f1430300    C...    ADC      r3,r3,#0
        0x080018ec:    f0004000    ...@    AND      r0,r0,#0x80000000
        0x080018f0:    ea430000    C...    ORR      r0,r3,r0
        0x080018f4:    4770        pG      BX       lr
        0x080018f6:    d3f9        ..      BCC      0x80018ec ; _e2e + 88
        0x080018f8:    0857        W.      LSRS     r7,r2,#1
        0x080018fa:    e7d0        ..      B        0x800189e ; _e2e + 10
        0x080018fc:    ea464606    F..F    ORR      r6,r6,r6,LSL #16
        0x08001900:    f1130f40    ..@.    CMN      r3,#0x40
        0x08001904:    ea4f4616    O..F    LSR      r6,r6,#16
        0x08001908:    dd1f        ..      BLE      0x800194a ; _e2e + 182
        0x0800190a:    f1130f20    .. .    CMN      r3,#0x20
        0x0800190e:    bfdf        ..      ITTTT    LE
        0x08001910:    4316        .C      ORRLE    r6,r6,r2
        0x08001912:    460a        .F      MOVLE    r2,r1
        0x08001914:    2100        .!      MOVLE    r1,#0
        0x08001916:    3320         3      ADDLE    r3,r3,#0x20
        0x08001918:    425b        [B      RSBS     r3,r3,#0
        0x0800191a:    d0be        ..      BEQ      0x800189a ; _e2e + 6
        0x0800191c:    f1c30720    .. .    RSB      r7,r3,#0x20
        0x08001920:    ea464606    F..F    ORR      r6,r6,r6,LSL #16
        0x08001924:    fa02f707    ....    LSL      r7,r2,r7
        0x08001928:    ea4f4616    O..F    LSR      r6,r6,#16
        0x0800192c:    ea460607    F...    ORR      r6,r6,r7
        0x08001930:    f1c30720    .. .    RSB      r7,r3,#0x20
        0x08001934:    fa22f203    "...    LSR      r2,r2,r3
        0x08001938:    fa01f707    ....    LSL      r7,r1,r7
        0x0800193c:    fa21f103    !...    LSR      r1,r1,r3
        0x08001940:    f04f0300    O...    MOV      r3,#0
        0x08001944:    ea420207    B...    ORR      r2,r2,r7
        0x08001948:    e7a7        ..      B        0x800189a ; _e2e + 6
        0x0800194a:    ea460602    F...    ORR      r6,r6,r2
        0x0800194e:    ea464606    F..F    ORR      r6,r6,r6,LSL #16
        0x08001952:    ea4f4616    O..F    LSR      r6,r6,#16
        0x08001956:    ea460601    F...    ORR      r6,r6,r1
        0x0800195a:    bfbc        ..      ITT      LT
        0x0800195c:    ea464606    F..F    ORRLT    r6,r6,r6,LSL #16
        0x08001960:    0c36        6.      LSRLT    r6,r6,#16
        0x08001962:    f04f0300    O...    MOV      r3,#0
        0x08001966:    f04f0200    O...    MOV      r2,#0
        0x0800196a:    f04f0100    O...    MOV      r1,#0
        0x0800196e:    e794        ..      B        0x800189a ; _e2e + 6
    CL$$btod_ediv
    _btod_ediv
        0x08001970:    e92d4c80    -..L    PUSH     {r7,r10,r11,lr}
        0x08001974:    469a        .F      MOV      r10,r3
        0x08001976:    4693        .F      MOV      r11,r2
        0x08001978:    b470        p.      PUSH     {r4-r6}
        0x0800197a:    e8910038    ..8.    LDM      r1,{r3-r5}
        0x0800197e:    c807        ..      LDM      r0,{r0-r2}
        0x08001980:    ea310c40    1.@.    BICS     r12,r1,r0,LSL #1
        0x08001984:    bf48        H.      IT       MI
        0x08001986:    ea340c43    4.C.    BICSMI   r12,r4,r3,LSL #1
        0x0800198a:    d503        ..      BPL      0x8001994 ; _btod_ediv + 36
        0x0800198c:    f7fffde6    ....    BL       __btod_div_common ; 0x800155c
        0x08001990:    f7ffff80    ....    BL       _e2e ; 0x8001894
        0x08001994:    bcf0        ..      POP      {r4-r7}
        0x08001996:    e8bd8c00    ....    POP      {r10,r11,pc}
    CL$$btod_emul
    _btod_emul
        0x0800199a:    e92d4c80    -..L    PUSH     {r7,r10,r11,lr}
        0x0800199e:    469a        .F      MOV      r10,r3
        0x080019a0:    4693        .F      MOV      r11,r2
        0x080019a2:    b470        p.      PUSH     {r4-r6}
        0x080019a4:    e8910038    ..8.    LDM      r1,{r3-r5}
        0x080019a8:    c807        ..      LDM      r0,{r0-r2}
        0x080019aa:    f0104f80    ...O    TST      r0,#0x40000000
        0x080019ae:    bf08        ..      IT       EQ
        0x080019b0:    f0134f80    ...O    TSTEQ    r3,#0x40000000
        0x080019b4:    d103        ..      BNE      0x80019be ; _btod_emul + 36
        0x080019b6:    f000f805    ....    BL       __btod_mult_common ; 0x80019c4
        0x080019ba:    f7ffff6b    ..k.    BL       _e2e ; 0x8001894
        0x080019be:    bcf0        ..      POP      {r4-r7}
        0x080019c0:    e8bd8c00    ....    POP      {r10,r11,pc}
    CL$$btod_mult_common
    __btod_mult_common
        0x080019c4:    f020477f     ..G    BIC      r7,r0,#0xff000000
        0x080019c8:    ea800003    ....    EOR      r0,r0,r3
        0x080019cc:    f0234c7f    #..L    BIC      r12,r3,#0xff000000
        0x080019d0:    eb07030c    ....    ADD      r3,r7,r12
        0x080019d4:    f5a3537c    ..|S    SUB      r3,r3,#0x3f00
        0x080019d8:    f0004000    ...@    AND      r0,r0,#0x80000000
        0x080019dc:    f1a303fe    ....    SUB      r3,r3,#0xfe
        0x080019e0:    f0920f00    ....    TEQ      r2,#0
        0x080019e4:    f00080b3    ....    BEQ.W    0x8001b4e ; __btod_mult_common + 394
        0x080019e8:    f0950f00    ....    TEQ      r5,#0
        0x080019ec:    f0008077    ..w.    BEQ.W    0x8001ade ; __btod_mult_common + 282
        0x080019f0:    e92d4901    -..I    PUSH     {r0,r8,r11,lr}
        0x080019f4:    ea4f4011    O..@    LSR      r0,r1,#16
        0x080019f8:    ea4f4614    O..F    LSR      r6,r4,#16
        0x080019fc:    ea214800    !..H    BIC      r8,r1,r0,LSL #16
        0x08001a00:    fb00fc06    ....    MUL      r12,r0,r6
        0x08001a04:    ea244706    $..G    BIC      r7,r4,r6,LSL #16
        0x08001a08:    fb08f606    ....    MUL      r6,r8,r6
        0x08001a0c:    fb07f808    ....    MUL      r8,r7,r8
        0x08001a10:    fb00f707    ....    MUL      r7,r0,r7
        0x08001a14:    eb184806    ...H    ADDS     r8,r8,r6,LSL #16
        0x08001a18:    eb4c4c16    L..L    ADC      r12,r12,r6,LSR #16
        0x08001a1c:    ea4f4b12    O..K    LSR      r11,r2,#16
        0x08001a20:    eb184807    ...H    ADDS     r8,r8,r7,LSL #16
        0x08001a24:    ea4f4615    O..F    LSR      r6,r5,#16
        0x08001a28:    eb4c4017    L..@    ADC      r0,r12,r7,LSR #16
        0x08001a2c:    ea224e0b    "..N    BIC      lr,r2,r11,LSL #16
        0x08001a30:    fb0bfc06    ....    MUL      r12,r11,r6
        0x08001a34:    ea254706    %..G    BIC      r7,r5,r6,LSL #16
        0x08001a38:    fb0ef606    ....    MUL      r6,lr,r6
        0x08001a3c:    fb07fe0e    ....    MUL      lr,r7,lr
        0x08001a40:    fb0bf707    ....    MUL      r7,r11,r7
        0x08001a44:    eb1e4e06    ...N    ADDS     lr,lr,r6,LSL #16
        0x08001a48:    eb4c4c16    L..L    ADC      r12,r12,r6,LSR #16
        0x08001a4c:    f04f0600    O...    MOV      r6,#0
        0x08001a50:    eb1e4e07    ...N    ADDS     lr,lr,r7,LSL #16
        0x08001a54:    eb4c4b17    L..K    ADC      r11,r12,r7,LSR #16
        0x08001a58:    eb18080b    ....    ADDS     r8,r8,r11
        0x08001a5c:    f1400000    @...    ADC      r0,r0,#0
        0x08001a60:    eb180b0e    ....    ADDS     r11,r8,lr
        0x08001a64:    eb580800    X...    ADCS     r8,r8,r0
        0x08001a68:    f1400000    @...    ADC      r0,r0,#0
        0x08001a6c:    1a8f        ..      SUBS     r7,r1,r2
        0x08001a6e:    f04f0100    O...    MOV      r1,#0
        0x08001a72:    bf3c        <.      ITT      CC
        0x08001a74:    43c9        .C      MVNCC    r1,r1
        0x08001a76:    1b66        f.      SUBCC    r6,r4,r5
        0x08001a78:    bf14        ..      ITE      NE
        0x08001a7a:    ebb50c04    ....    SUBSNE   r12,r5,r4
        0x08001a7e:    2100        .!      MOVEQ    r1,#0
        0x08001a80:    bf3c        <.      ITT      CC
        0x08001a82:    43c9        .C      MVNCC    r1,r1
        0x08001a84:    1bf6        ..      SUBCC    r6,r6,r7
        0x08001a86:    ea4f4417    O..D    LSR      r4,r7,#16
        0x08001a8a:    ea4e0e8e    N...    ORR      lr,lr,lr,LSL #2
        0x08001a8e:    ea274504    '..E    BIC      r5,r7,r4,LSL #16
        0x08001a92:    ea4f471c    O..G    LSR      r7,r12,#16
        0x08001a96:    fb046207    ...b    MLA      r2,r4,r7,r6
        0x08001a9a:    ea2c4c07    ,..L    BIC      r12,r12,r7,LSL #16
        0x08001a9e:    fb05f707    ....    MUL      r7,r5,r7
        0x08001aa2:    fb0cf605    ....    MUL      r6,r12,r5
        0x08001aa6:    fb04fc0c    ....    MUL      r12,r4,r12
        0x08001aaa:    eb164607    ...F    ADDS     r6,r6,r7,LSL #16
        0x08001aae:    eb424217    B..B    ADC      r2,r2,r7,LSR #16
        0x08001ab2:    eb16460c    ...F    ADDS     r6,r6,r12,LSL #16
        0x08001ab6:    eb42421c    B..B    ADC      r2,r2,r12,LSR #16
        0x08001aba:    eb1b0606    ....    ADDS     r6,r11,r6
        0x08001abe:    eb580202    X...    ADCS     r2,r8,r2
        0x08001ac2:    4141        AA      ADCS     r1,r1,r0
        0x08001ac4:    ea46069e    F...    ORR      r6,r6,lr,LSR #2
        0x08001ac8:    d501        ..      BPL      0x8001ace ; __btod_mult_common + 266
        0x08001aca:    e8bd8901    ....    POP      {r0,r8,r11,pc}
        0x08001ace:    19b6        ..      ADDS     r6,r6,r6
        0x08001ad0:    4152        RA      ADCS     r2,r2,r2
        0x08001ad2:    eb410101    A...    ADC      r1,r1,r1
        0x08001ad6:    f1a30301    ....    SUB      r3,r3,#1
        0x08001ada:    e8bd8901    ....    POP      {r0,r8,r11,pc}
        0x08001ade:    ea4f4514    O..E    LSR      r5,r4,#16
        0x08001ae2:    ea4f4711    O..G    LSR      r7,r1,#16
        0x08001ae6:    ea244605    $..F    BIC      r6,r4,r5,LSL #16
        0x08001aea:    ea214c07    !..L    BIC      r12,r1,r7,LSL #16
        0x08001aee:    fb05f407    ....    MUL      r4,r5,r7
        0x08001af2:    fb06f707    ....    MUL      r7,r6,r7
        0x08001af6:    fb0cf106    ....    MUL      r1,r12,r6
        0x08001afa:    fb05fc0c    ....    MUL      r12,r5,r12
        0x08001afe:    eb114107    ...A    ADDS     r1,r1,r7,LSL #16
        0x08001b02:    eb444417    D..D    ADC      r4,r4,r7,LSR #16
        0x08001b06:    ea4f4712    O..G    LSR      r7,r2,#16
        0x08001b0a:    eb11410c    ...A    ADDS     r1,r1,r12,LSL #16
        0x08001b0e:    eb44441c    D..D    ADC      r4,r4,r12,LSR #16
        0x08001b12:    ea224c07    "..L    BIC      r12,r2,r7,LSL #16
        0x08001b16:    fb05f207    ....    MUL      r2,r5,r7
        0x08001b1a:    fb06f707    ....    MUL      r7,r6,r7
        0x08001b1e:    fb0cf606    ....    MUL      r6,r12,r6
        0x08001b22:    fb05fc0c    ....    MUL      r12,r5,r12
        0x08001b26:    eb164607    ...F    ADDS     r6,r6,r7,LSL #16
        0x08001b2a:    eb424217    B..B    ADC      r2,r2,r7,LSR #16
        0x08001b2e:    eb16460c    ...F    ADDS     r6,r6,r12,LSL #16
        0x08001b32:    eb42451c    B..E    ADC      r5,r2,r12,LSR #16
        0x08001b36:    186a        j.      ADDS     r2,r5,r1
        0x08001b38:    f1540100    T...    ADCS     r1,r4,#0
        0x08001b3c:    bf48        H.      IT       MI
        0x08001b3e:    4770        pG      BXMI     lr
        0x08001b40:    19b6        ..      ADDS     r6,r6,r6
        0x08001b42:    4152        RA      ADCS     r2,r2,r2
        0x08001b44:    eb410101    A...    ADC      r1,r1,r1
        0x08001b48:    f1a30301    ....    SUB      r3,r3,#1
        0x08001b4c:    4770        pG      BX       lr
        0x08001b4e:    f0950f00    ....    TEQ      r5,#0
        0x08001b52:    d037        7.      BEQ      0x8001bc4 ; __btod_mult_common + 512
        0x08001b54:    ea4f4211    O..B    LSR      r2,r1,#16
        0x08001b58:    ea4f4714    O..G    LSR      r7,r4,#16
        0x08001b5c:    ea214602    !..F    BIC      r6,r1,r2,LSL #16
        0x08001b60:    ea244c07    $..L    BIC      r12,r4,r7,LSL #16
        0x08001b64:    fb02f107    ....    MUL      r1,r2,r7
        0x08001b68:    fb06f707    ....    MUL      r7,r6,r7
        0x08001b6c:    fb0cf406    ....    MUL      r4,r12,r6
        0x08001b70:    fb02fc0c    ....    MUL      r12,r2,r12
        0x08001b74:    eb144407    ...D    ADDS     r4,r4,r7,LSL #16
        0x08001b78:    eb414117    A..A    ADC      r1,r1,r7,LSR #16
        0x08001b7c:    ea4f4715    O..G    LSR      r7,r5,#16
        0x08001b80:    eb14440c    ...D    ADDS     r4,r4,r12,LSL #16
        0x08001b84:    eb41411c    A..A    ADC      r1,r1,r12,LSR #16
        0x08001b88:    ea254c07    %..L    BIC      r12,r5,r7,LSL #16
        0x08001b8c:    fb02f507    ....    MUL      r5,r2,r7
        0x08001b90:    fb06f707    ....    MUL      r7,r6,r7
        0x08001b94:    fb0cf606    ....    MUL      r6,r12,r6
        0x08001b98:    fb02fc0c    ....    MUL      r12,r2,r12
        0x08001b9c:    eb164607    ...F    ADDS     r6,r6,r7,LSL #16
        0x08001ba0:    eb454517    E..E    ADC      r5,r5,r7,LSR #16
        0x08001ba4:    eb16460c    ...F    ADDS     r6,r6,r12,LSL #16
        0x08001ba8:    eb45421c    E..B    ADC      r2,r5,r12,LSR #16
        0x08001bac:    1912        ..      ADDS     r2,r2,r4
        0x08001bae:    f1510100    Q...    ADCS     r1,r1,#0
        0x08001bb2:    bf48        H.      IT       MI
        0x08001bb4:    4770        pG      BXMI     lr
        0x08001bb6:    19b6        ..      ADDS     r6,r6,r6
        0x08001bb8:    4152        RA      ADCS     r2,r2,r2
        0x08001bba:    eb410101    A...    ADC      r1,r1,r1
        0x08001bbe:    f1a30301    ....    SUB      r3,r3,#1
        0x08001bc2:    4770        pG      BX       lr
        0x08001bc4:    ea4f4514    O..E    LSR      r5,r4,#16
        0x08001bc8:    ea4f4711    O..G    LSR      r7,r1,#16
        0x08001bcc:    ea244605    $..F    BIC      r6,r4,r5,LSL #16
        0x08001bd0:    ea214c07    !..L    BIC      r12,r1,r7,LSL #16
        0x08001bd4:    fb05f107    ....    MUL      r1,r5,r7
        0x08001bd8:    fb06f707    ....    MUL      r7,r6,r7
        0x08001bdc:    fb0cf206    ....    MUL      r2,r12,r6
        0x08001be0:    f04f0600    O...    MOV      r6,#0
        0x08001be4:    fb05fc0c    ....    MUL      r12,r5,r12
        0x08001be8:    eb124207    ...B    ADDS     r2,r2,r7,LSL #16
        0x08001bec:    eb414117    A..A    ADC      r1,r1,r7,LSR #16
        0x08001bf0:    eb12420c    ...B    ADDS     r2,r2,r12,LSL #16
        0x08001bf4:    eb51411c    Q..A    ADCS     r1,r1,r12,LSR #16
        0x08001bf8:    bf48        H.      IT       MI
        0x08001bfa:    4770        pG      BXMI     lr
        0x08001bfc:    1892        ..      ADDS     r2,r2,r2
        0x08001bfe:    eb410101    A...    ADC      r1,r1,r1
        0x08001c02:    f1a30301    ....    SUB      r3,r3,#1
        0x08001c06:    4770        pG      BX       lr
    $Ven$TT$L$$
        0x08001c08:    f2400c01    @...    MOVW     r12,#1
        0x08001c0c:    f2c20c00    ....    MOVT     r12,#0x2000
        0x08001c10:    4760        `G      BX       r12
    i.BusFault_Handler
    BusFault_Handler
        0x08001c12:    bf00        ..      NOP      
        0x08001c14:    e7fe        ..      B        0x8001c14 ; BusFault_Handler + 2
        0x08001c16:    0000        ..      MOVS     r0,r0
    i.CmdResp1Error
    CmdResp1Error
        0x08001c18:    b570        p.      PUSH     {r4-r6,lr}
        0x08001c1a:    4604        .F      MOV      r4,r0
        0x08001c1c:    e005        ..      B        0x8001c2a ; CmdResp1Error + 18
        0x08001c1e:    4815        .H      LDR      r0,[pc,#84] ; [0x8001c74] = 0x40018000
        0x08001c20:    6b45        Ek      LDR      r5,[r0,#0x34]
        0x08001c22:    f0050045    ..E.    AND      r0,r5,#0x45
        0x08001c26:    b100        ..      CBZ      r0,0x8001c2a ; CmdResp1Error + 18
        0x08001c28:    e000        ..      B        0x8001c2c ; CmdResp1Error + 20
        0x08001c2a:    e7f8        ..      B        0x8001c1e ; CmdResp1Error + 6
        0x08001c2c:    bf00        ..      NOP      
        0x08001c2e:    2004        .       MOVS     r0,#4
        0x08001c30:    f000fb54    ..T.    BL       SDIO_GetFlagStatus ; 0x80022dc
        0x08001c34:    b120         .      CBZ      r0,0x8001c40 ; CmdResp1Error + 40
        0x08001c36:    2004        .       MOVS     r0,#4
        0x08001c38:    f000fb4a    ..J.    BL       SDIO_ClearFlag ; 0x80022d0
        0x08001c3c:    2003        .       MOVS     r0,#3
        0x08001c3e:    bd70        p.      POP      {r4-r6,pc}
        0x08001c40:    2001        .       MOVS     r0,#1
        0x08001c42:    f000fb4b    ..K.    BL       SDIO_GetFlagStatus ; 0x80022dc
        0x08001c46:    b120         .      CBZ      r0,0x8001c52 ; CmdResp1Error + 58
        0x08001c48:    2001        .       MOVS     r0,#1
        0x08001c4a:    f000fb41    ..A.    BL       SDIO_ClearFlag ; 0x80022d0
        0x08001c4e:    2001        .       MOVS     r0,#1
        0x08001c50:    e7f5        ..      B        0x8001c3e ; CmdResp1Error + 38
        0x08001c52:    4808        .H      LDR      r0,[pc,#32] ; [0x8001c74] = 0x40018000
        0x08001c54:    6900        .i      LDR      r0,[r0,#0x10]
        0x08001c56:    42a0        .B      CMP      r0,r4
        0x08001c58:    d001        ..      BEQ      0x8001c5e ; CmdResp1Error + 70
        0x08001c5a:    2010        .       MOVS     r0,#0x10
        0x08001c5c:    e7ef        ..      B        0x8001c3e ; CmdResp1Error + 38
        0x08001c5e:    f24050ff    @..P    MOV      r0,#0x5ff
        0x08001c62:    4904        .I      LDR      r1,[pc,#16] ; [0x8001c74] = 0x40018000
        0x08001c64:    6388        .c      STR      r0,[r1,#0x38]
        0x08001c66:    4608        .F      MOV      r0,r1
        0x08001c68:    6940        @i      LDR      r0,[r0,#0x14]
        0x08001c6a:    2108        .!      MOVS     r1,#8
        0x08001c6c:    4008        .@      ANDS     r0,r0,r1
        0x08001c6e:    b2c0        ..      UXTB     r0,r0
        0x08001c70:    e7e5        ..      B        0x8001c3e ; CmdResp1Error + 38
    $d
        0x08001c72:    0000        ..      DCW    0
        0x08001c74:    40018000    ...@    DCD    1073840128
    $t
    i.DHT11_Check
    DHT11_Check
        0x08001c78:    b510        ..      PUSH     {r4,lr}
        0x08001c7a:    2400        .$      MOVS     r4,#0
        0x08001c7c:    4815        .H      LDR      r0,[pc,#84] ; [0x8001cd4] = 0x40012000
        0x08001c7e:    6840        @h      LDR      r0,[r0,#4]
        0x08001c80:    f4204070     .p@    BIC      r0,r0,#0xf000
        0x08001c84:    4913        .I      LDR      r1,[pc,#76] ; [0x8001cd4] = 0x40012000
        0x08001c86:    6048        H`      STR      r0,[r1,#4]
        0x08001c88:    4608        .F      MOV      r0,r1
        0x08001c8a:    6840        @h      LDR      r0,[r0,#4]
        0x08001c8c:    f4404000    @..@    ORR      r0,r0,#0x8000
        0x08001c90:    6048        H`      STR      r0,[r1,#4]
        0x08001c92:    e004        ..      B        0x8001c9e ; DHT11_Check + 38
        0x08001c94:    1c60        `.      ADDS     r0,r4,#1
        0x08001c96:    b2c4        ..      UXTB     r4,r0
        0x08001c98:    2001        .       MOVS     r0,#1
        0x08001c9a:    f001fa95    ....    BL       delay_us ; 0x80031c8
        0x08001c9e:    480e        .H      LDR      r0,[pc,#56] ; [0x8001cd8] = 0x4224012c
        0x08001ca0:    6800        .h      LDR      r0,[r0,#0]
        0x08001ca2:    b108        ..      CBZ      r0,0x8001ca8 ; DHT11_Check + 48
        0x08001ca4:    2c64        d,      CMP      r4,#0x64
        0x08001ca6:    dbf5        ..      BLT      0x8001c94 ; DHT11_Check + 28
        0x08001ca8:    2c64        d,      CMP      r4,#0x64
        0x08001caa:    db01        ..      BLT      0x8001cb0 ; DHT11_Check + 56
        0x08001cac:    2001        .       MOVS     r0,#1
        0x08001cae:    bd10        ..      POP      {r4,pc}
        0x08001cb0:    2400        .$      MOVS     r4,#0
        0x08001cb2:    e004        ..      B        0x8001cbe ; DHT11_Check + 70
        0x08001cb4:    1c60        `.      ADDS     r0,r4,#1
        0x08001cb6:    b2c4        ..      UXTB     r4,r0
        0x08001cb8:    2001        .       MOVS     r0,#1
        0x08001cba:    f001fa85    ....    BL       delay_us ; 0x80031c8
        0x08001cbe:    4806        .H      LDR      r0,[pc,#24] ; [0x8001cd8] = 0x4224012c
        0x08001cc0:    6800        .h      LDR      r0,[r0,#0]
        0x08001cc2:    b908        ..      CBNZ     r0,0x8001cc8 ; DHT11_Check + 80
        0x08001cc4:    2c64        d,      CMP      r4,#0x64
        0x08001cc6:    dbf5        ..      BLT      0x8001cb4 ; DHT11_Check + 60
        0x08001cc8:    2c64        d,      CMP      r4,#0x64
        0x08001cca:    db01        ..      BLT      0x8001cd0 ; DHT11_Check + 88
        0x08001ccc:    2001        .       MOVS     r0,#1
        0x08001cce:    e7ee        ..      B        0x8001cae ; DHT11_Check + 54
        0x08001cd0:    2000        .       MOVS     r0,#0
        0x08001cd2:    e7ec        ..      B        0x8001cae ; DHT11_Check + 54
    $d
        0x08001cd4:    40012000    . .@    DCD    1073815552
        0x08001cd8:    4224012c    ,.$B    DCD    1109655852
    $t
    i.DHT11_Init
    DHT11_Init
        0x08001cdc:    b508        ..      PUSH     {r3,lr}
        0x08001cde:    2101        .!      MOVS     r1,#1
        0x08001ce0:    0208        ..      LSLS     r0,r1,#8
        0x08001ce2:    f000fa6b    ..k.    BL       RCC_APB2PeriphClockCmd ; 0x80021bc
        0x08001ce6:    f44f6000    O..`    MOV      r0,#0x800
        0x08001cea:    f8ad0000    ....    STRH     r0,[sp,#0]
        0x08001cee:    2010        .       MOVS     r0,#0x10
        0x08001cf0:    f88d0003    ....    STRB     r0,[sp,#3]
        0x08001cf4:    2003        .       MOVS     r0,#3
        0x08001cf6:    f88d0002    ....    STRB     r0,[sp,#2]
        0x08001cfa:    4669        iF      MOV      r1,sp
        0x08001cfc:    4806        .H      LDR      r0,[pc,#24] ; [0x8001d18] = 0x40012000
        0x08001cfe:    f000f937    ..7.    BL       GPIO_Init ; 0x8001f70
        0x08001d02:    f44f6100    O..a    MOV      r1,#0x800
        0x08001d06:    4804        .H      LDR      r0,[pc,#16] ; [0x8001d18] = 0x40012000
        0x08001d08:    f000f9c6    ....    BL       GPIO_SetBits ; 0x8002098
        0x08001d0c:    f000f870    ..p.    BL       DHT11_Rst ; 0x8001df0
        0x08001d10:    f7ffffb2    ....    BL       DHT11_Check ; 0x8001c78
        0x08001d14:    bd08        ..      POP      {r3,pc}
    $d
        0x08001d16:    0000        ..      DCW    0
        0x08001d18:    40012000    . .@    DCD    1073815552
    $t
    i.DHT11_Read_Bit
    DHT11_Read_Bit
        0x08001d1c:    b510        ..      PUSH     {r4,lr}
        0x08001d1e:    2400        .$      MOVS     r4,#0
        0x08001d20:    e004        ..      B        0x8001d2c ; DHT11_Read_Bit + 16
        0x08001d22:    1c60        `.      ADDS     r0,r4,#1
        0x08001d24:    b2c4        ..      UXTB     r4,r0
        0x08001d26:    2001        .       MOVS     r0,#1
        0x08001d28:    f001fa4e    ..N.    BL       delay_us ; 0x80031c8
        0x08001d2c:    480d        .H      LDR      r0,[pc,#52] ; [0x8001d64] = 0x4224012c
        0x08001d2e:    6800        .h      LDR      r0,[r0,#0]
        0x08001d30:    b108        ..      CBZ      r0,0x8001d36 ; DHT11_Read_Bit + 26
        0x08001d32:    2c64        d,      CMP      r4,#0x64
        0x08001d34:    dbf5        ..      BLT      0x8001d22 ; DHT11_Read_Bit + 6
        0x08001d36:    2400        .$      MOVS     r4,#0
        0x08001d38:    e004        ..      B        0x8001d44 ; DHT11_Read_Bit + 40
        0x08001d3a:    1c60        `.      ADDS     r0,r4,#1
        0x08001d3c:    b2c4        ..      UXTB     r4,r0
        0x08001d3e:    2001        .       MOVS     r0,#1
        0x08001d40:    f001fa42    ..B.    BL       delay_us ; 0x80031c8
        0x08001d44:    4807        .H      LDR      r0,[pc,#28] ; [0x8001d64] = 0x4224012c
        0x08001d46:    6800        .h      LDR      r0,[r0,#0]
        0x08001d48:    b908        ..      CBNZ     r0,0x8001d4e ; DHT11_Read_Bit + 50
        0x08001d4a:    2c64        d,      CMP      r4,#0x64
        0x08001d4c:    dbf5        ..      BLT      0x8001d3a ; DHT11_Read_Bit + 30
        0x08001d4e:    2028        (       MOVS     r0,#0x28
        0x08001d50:    f001fa3a    ..:.    BL       delay_us ; 0x80031c8
        0x08001d54:    4803        .H      LDR      r0,[pc,#12] ; [0x8001d64] = 0x4224012c
        0x08001d56:    6800        .h      LDR      r0,[r0,#0]
        0x08001d58:    b108        ..      CBZ      r0,0x8001d5e ; DHT11_Read_Bit + 66
        0x08001d5a:    2001        .       MOVS     r0,#1
        0x08001d5c:    bd10        ..      POP      {r4,pc}
        0x08001d5e:    2000        .       MOVS     r0,#0
        0x08001d60:    e7fc        ..      B        0x8001d5c ; DHT11_Read_Bit + 64
    $d
        0x08001d62:    0000        ..      DCW    0
        0x08001d64:    4224012c    ,.$B    DCD    1109655852
    $t
    i.DHT11_Read_Byte
    DHT11_Read_Byte
        0x08001d68:    b570        p.      PUSH     {r4-r6,lr}
        0x08001d6a:    2400        .$      MOVS     r4,#0
        0x08001d6c:    2500        .%      MOVS     r5,#0
        0x08001d6e:    e006        ..      B        0x8001d7e ; DHT11_Read_Byte + 22
        0x08001d70:    0660        `.      LSLS     r0,r4,#25
        0x08001d72:    0e04        ..      LSRS     r4,r0,#24
        0x08001d74:    f7ffffd2    ....    BL       DHT11_Read_Bit ; 0x8001d1c
        0x08001d78:    4304        .C      ORRS     r4,r4,r0
        0x08001d7a:    1c68        h.      ADDS     r0,r5,#1
        0x08001d7c:    b2c5        ..      UXTB     r5,r0
        0x08001d7e:    2d08        .-      CMP      r5,#8
        0x08001d80:    dbf6        ..      BLT      0x8001d70 ; DHT11_Read_Byte + 8
        0x08001d82:    4620         F      MOV      r0,r4
        0x08001d84:    bd70        p.      POP      {r4-r6,pc}
    i.DHT11_Read_Data
    DHT11_Read_Data
        0x08001d86:    b57c        |.      PUSH     {r2-r6,lr}
        0x08001d88:    4605        .F      MOV      r5,r0
        0x08001d8a:    460e        .F      MOV      r6,r1
        0x08001d8c:    f000f830    ..0.    BL       DHT11_Rst ; 0x8001df0
        0x08001d90:    f7ffff72    ..r.    BL       DHT11_Check ; 0x8001c78
        0x08001d94:    bb38        8.      CBNZ     r0,0x8001de6 ; DHT11_Read_Data + 96
        0x08001d96:    2400        .$      MOVS     r4,#0
        0x08001d98:    e005        ..      B        0x8001da6 ; DHT11_Read_Data + 32
        0x08001d9a:    f7ffffe5    ....    BL       DHT11_Read_Byte ; 0x8001d68
        0x08001d9e:    f80d0004    ....    STRB     r0,[sp,r4]
        0x08001da2:    1c60        `.      ADDS     r0,r4,#1
        0x08001da4:    b2c4        ..      UXTB     r4,r0
        0x08001da6:    2c05        .,      CMP      r4,#5
        0x08001da8:    dbf7        ..      BLT      0x8001d9a ; DHT11_Read_Data + 20
        0x08001daa:    f89d0000    ....    LDRB     r0,[sp,#0]
        0x08001dae:    f89d1001    ....    LDRB     r1,[sp,#1]
        0x08001db2:    4408        .D      ADD      r0,r0,r1
        0x08001db4:    f89d1002    ....    LDRB     r1,[sp,#2]
        0x08001db8:    4408        .D      ADD      r0,r0,r1
        0x08001dba:    f89d1003    ....    LDRB     r1,[sp,#3]
        0x08001dbe:    4408        .D      ADD      r0,r0,r1
        0x08001dc0:    f89d1004    ....    LDRB     r1,[sp,#4]
        0x08001dc4:    4288        .B      CMP      r0,r1
        0x08001dc6:    d110        ..      BNE      0x8001dea ; DHT11_Read_Data + 100
        0x08001dc8:    f89d0001    ....    LDRB     r0,[sp,#1]
        0x08001dcc:    f89d1000    ....    LDRB     r1,[sp,#0]
        0x08001dd0:    ea402001    @..     ORR      r0,r0,r1,LSL #8
        0x08001dd4:    8030        0.      STRH     r0,[r6,#0]
        0x08001dd6:    f89d0003    ....    LDRB     r0,[sp,#3]
        0x08001dda:    f89d1002    ....    LDRB     r1,[sp,#2]
        0x08001dde:    ea402001    @..     ORR      r0,r0,r1,LSL #8
        0x08001de2:    8028        (.      STRH     r0,[r5,#0]
        0x08001de4:    e001        ..      B        0x8001dea ; DHT11_Read_Data + 100
        0x08001de6:    2001        .       MOVS     r0,#1
        0x08001de8:    bd7c        |.      POP      {r2-r6,pc}
        0x08001dea:    2000        .       MOVS     r0,#0
        0x08001dec:    e7fc        ..      B        0x8001de8 ; DHT11_Read_Data + 98
        0x08001dee:    0000        ..      MOVS     r0,r0
    i.DHT11_Rst
    DHT11_Rst
        0x08001df0:    b510        ..      PUSH     {r4,lr}
        0x08001df2:    480c        .H      LDR      r0,[pc,#48] ; [0x8001e24] = 0x40012000
        0x08001df4:    6840        @h      LDR      r0,[r0,#4]
        0x08001df6:    f4204070     .p@    BIC      r0,r0,#0xf000
        0x08001dfa:    490a        .I      LDR      r1,[pc,#40] ; [0x8001e24] = 0x40012000
        0x08001dfc:    6048        H`      STR      r0,[r1,#4]
        0x08001dfe:    4608        .F      MOV      r0,r1
        0x08001e00:    6840        @h      LDR      r0,[r0,#4]
        0x08001e02:    f4405040    @.@P    ORR      r0,r0,#0x3000
        0x08001e06:    6048        H`      STR      r0,[r1,#4]
        0x08001e08:    2000        .       MOVS     r0,#0
        0x08001e0a:    4907        .I      LDR      r1,[pc,#28] ; [0x8001e28] = 0x422401ac
        0x08001e0c:    6008        .`      STR      r0,[r1,#0]
        0x08001e0e:    2014        .       MOVS     r0,#0x14
        0x08001e10:    f001f9b4    ....    BL       delay_ms ; 0x800317c
        0x08001e14:    2001        .       MOVS     r0,#1
        0x08001e16:    4905        .I      LDR      r1,[pc,#20] ; [0x8001e2c] = 0x42240000
        0x08001e18:    f8c101ac    ....    STR      r0,[r1,#0x1ac]
        0x08001e1c:    201e        .       MOVS     r0,#0x1e
        0x08001e1e:    f001f9d3    ....    BL       delay_us ; 0x80031c8
        0x08001e22:    bd10        ..      POP      {r4,pc}
    $d
        0x08001e24:    40012000    . .@    DCD    1073815552
        0x08001e28:    422401ac    ..$B    DCD    1109655980
        0x08001e2c:    42240000    ..$B    DCD    1109655552
    $t
    i.DebugMon_Handler
    DebugMon_Handler
        0x08001e30:    4770        pG      BX       lr
        0x08001e32:    0000        ..      MOVS     r0,r0
    i.EXTI0_IRQHandler
    EXTI0_IRQHandler
        0x08001e34:    b510        ..      PUSH     {r4,lr}
        0x08001e36:    200a        .       MOVS     r0,#0xa
        0x08001e38:    f001f9a0    ....    BL       delay_ms ; 0x800317c
        0x08001e3c:    2101        .!      MOVS     r1,#1
        0x08001e3e:    4808        .H      LDR      r0,[pc,#32] ; [0x8001e60] = 0x40010800
        0x08001e40:    f000f921    ..!.    BL       GPIO_ReadInputDataBit ; 0x8002086
        0x08001e44:    2801        .(      CMP      r0,#1
        0x08001e46:    d107        ..      BNE      0x8001e58 ; EXTI0_IRQHandler + 36
        0x08001e48:    4806        .H      LDR      r0,[pc,#24] ; [0x8001e64] = 0x422181a0
        0x08001e4a:    6800        .h      LDR      r0,[r0,#0]
        0x08001e4c:    b908        ..      CBNZ     r0,0x8001e52 ; EXTI0_IRQHandler + 30
        0x08001e4e:    2001        .       MOVS     r0,#1
        0x08001e50:    e000        ..      B        0x8001e54 ; EXTI0_IRQHandler + 32
        0x08001e52:    2000        .       MOVS     r0,#0
        0x08001e54:    4903        .I      LDR      r1,[pc,#12] ; [0x8001e64] = 0x422181a0
        0x08001e56:    6008        .`      STR      r0,[r1,#0]
        0x08001e58:    2001        .       MOVS     r0,#1
        0x08001e5a:    f000f86f    ..o.    BL       EXTI_ClearITPendingBit ; 0x8001f3c
        0x08001e5e:    bd10        ..      POP      {r4,pc}
    $d
        0x08001e60:    40010800    ...@    DCD    1073809408
        0x08001e64:    422181a0    ..!B    DCD    1109492128
    $t
    i.EXTI3_IRQHandler
    EXTI3_IRQHandler
        0x08001e68:    b510        ..      PUSH     {r4,lr}
        0x08001e6a:    200a        .       MOVS     r0,#0xa
        0x08001e6c:    f001f986    ....    BL       delay_ms ; 0x800317c
        0x08001e70:    2108        .!      MOVS     r1,#8
        0x08001e72:    4808        .H      LDR      r0,[pc,#32] ; [0x8001e94] = 0x40011800
        0x08001e74:    f000f907    ....    BL       GPIO_ReadInputDataBit ; 0x8002086
        0x08001e78:    b938        8.      CBNZ     r0,0x8001e8a ; EXTI3_IRQHandler + 34
        0x08001e7a:    4807        .H      LDR      r0,[pc,#28] ; [0x8001e98] = 0x42230194
        0x08001e7c:    6800        .h      LDR      r0,[r0,#0]
        0x08001e7e:    b908        ..      CBNZ     r0,0x8001e84 ; EXTI3_IRQHandler + 28
        0x08001e80:    2001        .       MOVS     r0,#1
        0x08001e82:    e000        ..      B        0x8001e86 ; EXTI3_IRQHandler + 30
        0x08001e84:    2000        .       MOVS     r0,#0
        0x08001e86:    4904        .I      LDR      r1,[pc,#16] ; [0x8001e98] = 0x42230194
        0x08001e88:    6008        .`      STR      r0,[r1,#0]
        0x08001e8a:    2008        .       MOVS     r0,#8
        0x08001e8c:    f000f856    ..V.    BL       EXTI_ClearITPendingBit ; 0x8001f3c
        0x08001e90:    bd10        ..      POP      {r4,pc}
    $d
        0x08001e92:    0000        ..      DCW    0
        0x08001e94:    40011800    ...@    DCD    1073813504
        0x08001e98:    42230194    ..#B    DCD    1109590420
    $t
    i.EXTI4_IRQHandler
    EXTI4_IRQHandler
        0x08001e9c:    b510        ..      PUSH     {r4,lr}
        0x08001e9e:    200a        .       MOVS     r0,#0xa
        0x08001ea0:    f001f96c    ..l.    BL       delay_ms ; 0x800317c
        0x08001ea4:    2110        .!      MOVS     r1,#0x10
        0x08001ea6:    4808        .H      LDR      r0,[pc,#32] ; [0x8001ec8] = 0x40011800
        0x08001ea8:    f000f8ed    ....    BL       GPIO_ReadInputDataBit ; 0x8002086
        0x08001eac:    b938        8.      CBNZ     r0,0x8001ebe ; EXTI4_IRQHandler + 34
        0x08001eae:    4807        .H      LDR      r0,[pc,#28] ; [0x8001ecc] = 0x42218194
        0x08001eb0:    6800        .h      LDR      r0,[r0,#0]
        0x08001eb2:    b908        ..      CBNZ     r0,0x8001eb8 ; EXTI4_IRQHandler + 28
        0x08001eb4:    2001        .       MOVS     r0,#1
        0x08001eb6:    e000        ..      B        0x8001eba ; EXTI4_IRQHandler + 30
        0x08001eb8:    2000        .       MOVS     r0,#0
        0x08001eba:    4904        .I      LDR      r1,[pc,#16] ; [0x8001ecc] = 0x42218194
        0x08001ebc:    6008        .`      STR      r0,[r1,#0]
        0x08001ebe:    2010        .       MOVS     r0,#0x10
        0x08001ec0:    f000f83c    ..<.    BL       EXTI_ClearITPendingBit ; 0x8001f3c
        0x08001ec4:    bd10        ..      POP      {r4,pc}
    $d
        0x08001ec6:    0000        ..      DCW    0
        0x08001ec8:    40011800    ...@    DCD    1073813504
        0x08001ecc:    42218194    ..!B    DCD    1109492116
    $t
    i.EXTI9_5_IRQHandler
    EXTI9_5_IRQHandler
        0x08001ed0:    b510        ..      PUSH     {r4,lr}
        0x08001ed2:    f44f7080    O..p    MOV      r0,#0x100
        0x08001ed6:    f000f837    ..7.    BL       EXTI_GetITStatus ; 0x8001f48
        0x08001eda:    2801        .(      CMP      r0,#1
        0x08001edc:    d11e        ..      BNE      0x8001f1c ; EXTI9_5_IRQHandler + 76
        0x08001ede:    4812        .H      LDR      r0,[pc,#72] ; [0x8001f28] = 0x2000003c
        0x08001ee0:    7800        .x      LDRB     r0,[r0,#0]
        0x08001ee2:    b978        x.      CBNZ     r0,0x8001f04 ; EXTI9_5_IRQHandler + 52
        0x08001ee4:    2000        .       MOVS     r0,#0
        0x08001ee6:    4911        .I      LDR      r1,[pc,#68] ; [0x8001f2c] = 0x42228198
        0x08001ee8:    6008        .`      STR      r0,[r1,#0]
        0x08001eea:    2001        .       MOVS     r0,#1
        0x08001eec:    4910        .I      LDR      r1,[pc,#64] ; [0x8001f30] = 0x42228000
        0x08001eee:    f8c10198    ....    STR      r0,[r1,#0x198]
        0x08001ef2:    4910        .I      LDR      r1,[pc,#64] ; [0x8001f34] = 0x42218000
        0x08001ef4:    f8c1018c    ....    STR      r0,[r1,#0x18c]
        0x08001ef8:    480b        .H      LDR      r0,[pc,#44] ; [0x8001f28] = 0x2000003c
        0x08001efa:    7800        .x      LDRB     r0,[r0,#0]
        0x08001efc:    1c40        @.      ADDS     r0,r0,#1
        0x08001efe:    490a        .I      LDR      r1,[pc,#40] ; [0x8001f28] = 0x2000003c
        0x08001f00:    7008        .p      STRB     r0,[r1,#0]
        0x08001f02:    e00b        ..      B        0x8001f1c ; EXTI9_5_IRQHandler + 76
        0x08001f04:    4808        .H      LDR      r0,[pc,#32] ; [0x8001f28] = 0x2000003c
        0x08001f06:    7800        .x      LDRB     r0,[r0,#0]
        0x08001f08:    2801        .(      CMP      r0,#1
        0x08001f0a:    d107        ..      BNE      0x8001f1c ; EXTI9_5_IRQHandler + 76
        0x08001f0c:    2000        .       MOVS     r0,#0
        0x08001f0e:    490a        .I      LDR      r1,[pc,#40] ; [0x8001f38] = 0x4221818c
        0x08001f10:    6008        .`      STR      r0,[r1,#0]
        0x08001f12:    4805        .H      LDR      r0,[pc,#20] ; [0x8001f28] = 0x2000003c
        0x08001f14:    7800        .x      LDRB     r0,[r0,#0]
        0x08001f16:    1c40        @.      ADDS     r0,r0,#1
        0x08001f18:    4903        .I      LDR      r1,[pc,#12] ; [0x8001f28] = 0x2000003c
        0x08001f1a:    7008        .p      STRB     r0,[r1,#0]
        0x08001f1c:    f44f7080    O..p    MOV      r0,#0x100
        0x08001f20:    f000f80c    ....    BL       EXTI_ClearITPendingBit ; 0x8001f3c
        0x08001f24:    bd10        ..      POP      {r4,pc}
    $d
        0x08001f26:    0000        ..      DCW    0
        0x08001f28:    2000003c    <..     DCD    536870972
        0x08001f2c:    42228198    .."B    DCD    1109557656
        0x08001f30:    42228000    .."B    DCD    1109557248
        0x08001f34:    42218000    ..!B    DCD    1109491712
        0x08001f38:    4221818c    ..!B    DCD    1109492108
    $t
    i.EXTI_ClearITPendingBit
    EXTI_ClearITPendingBit
        0x08001f3c:    4901        .I      LDR      r1,[pc,#4] ; [0x8001f44] = 0x40010414
        0x08001f3e:    6008        .`      STR      r0,[r1,#0]
        0x08001f40:    4770        pG      BX       lr
    $d
        0x08001f42:    0000        ..      DCW    0
        0x08001f44:    40010414    ...@    DCD    1073808404
    $t
    i.EXTI_GetITStatus
    EXTI_GetITStatus
        0x08001f48:    4601        .F      MOV      r1,r0
        0x08001f4a:    2000        .       MOVS     r0,#0
        0x08001f4c:    2200        ."      MOVS     r2,#0
        0x08001f4e:    4b07        .K      LDR      r3,[pc,#28] ; [0x8001f6c] = 0x40010400
        0x08001f50:    681b        .h      LDR      r3,[r3,#0]
        0x08001f52:    ea030201    ....    AND      r2,r3,r1
        0x08001f56:    4b05        .K      LDR      r3,[pc,#20] ; [0x8001f6c] = 0x40010400
        0x08001f58:    3314        .3      ADDS     r3,r3,#0x14
        0x08001f5a:    681b        .h      LDR      r3,[r3,#0]
        0x08001f5c:    400b        .@      ANDS     r3,r3,r1
        0x08001f5e:    b113        ..      CBZ      r3,0x8001f66 ; EXTI_GetITStatus + 30
        0x08001f60:    b10a        ..      CBZ      r2,0x8001f66 ; EXTI_GetITStatus + 30
        0x08001f62:    2001        .       MOVS     r0,#1
        0x08001f64:    e000        ..      B        0x8001f68 ; EXTI_GetITStatus + 32
        0x08001f66:    2000        .       MOVS     r0,#0
        0x08001f68:    4770        pG      BX       lr
    $d
        0x08001f6a:    0000        ..      DCW    0
        0x08001f6c:    40010400    ...@    DCD    1073808384
    $t
    i.GPIO_Init
    GPIO_Init
        0x08001f70:    e92d41f0    -..A    PUSH     {r4-r8,lr}
        0x08001f74:    4602        .F      MOV      r2,r0
        0x08001f76:    2500        .%      MOVS     r5,#0
        0x08001f78:    2600        .&      MOVS     r6,#0
        0x08001f7a:    2000        .       MOVS     r0,#0
        0x08001f7c:    2300        .#      MOVS     r3,#0
        0x08001f7e:    2400        .$      MOVS     r4,#0
        0x08001f80:    2700        .'      MOVS     r7,#0
        0x08001f82:    f891c003    ....    LDRB     r12,[r1,#3]
        0x08001f86:    f00c050f    ....    AND      r5,r12,#0xf
        0x08001f8a:    f891c003    ....    LDRB     r12,[r1,#3]
        0x08001f8e:    f00c0c10    ....    AND      r12,r12,#0x10
        0x08001f92:    f1bc0f00    ....    CMP      r12,#0
        0x08001f96:    d003        ..      BEQ      0x8001fa0 ; GPIO_Init + 48
        0x08001f98:    f891c002    ....    LDRB     r12,[r1,#2]
        0x08001f9c:    ea4c0505    L...    ORR      r5,r12,r5
        0x08001fa0:    f891c000    ....    LDRB     r12,[r1,#0]
        0x08001fa4:    f1bc0f00    ....    CMP      r12,#0
        0x08001fa8:    d031        1.      BEQ      0x800200e ; GPIO_Init + 158
        0x08001faa:    6814        .h      LDR      r4,[r2,#0]
        0x08001fac:    2000        .       MOVS     r0,#0
        0x08001fae:    e02b        +.      B        0x8002008 ; GPIO_Init + 152
        0x08001fb0:    f04f0c01    O...    MOV      r12,#1
        0x08001fb4:    fa0cf300    ....    LSL      r3,r12,r0
        0x08001fb8:    f8b1c000    ....    LDRH     r12,[r1,#0]
        0x08001fbc:    ea0c0603    ....    AND      r6,r12,r3
        0x08001fc0:    429e        .B      CMP      r6,r3
        0x08001fc2:    d120         .      BNE      0x8002006 ; GPIO_Init + 150
        0x08001fc4:    0083        ..      LSLS     r3,r0,#2
        0x08001fc6:    f04f0c0f    O...    MOV      r12,#0xf
        0x08001fca:    fa0cf703    ....    LSL      r7,r12,r3
        0x08001fce:    43bc        .C      BICS     r4,r4,r7
        0x08001fd0:    fa05fc03    ....    LSL      r12,r5,r3
        0x08001fd4:    ea4c0404    L...    ORR      r4,r12,r4
        0x08001fd8:    f891c003    ....    LDRB     r12,[r1,#3]
        0x08001fdc:    f1bc0f28    ..(.    CMP      r12,#0x28
        0x08001fe0:    d106        ..      BNE      0x8001ff0 ; GPIO_Init + 128
        0x08001fe2:    f04f0c01    O...    MOV      r12,#1
        0x08001fe6:    fa0cfc00    ....    LSL      r12,r12,r0
        0x08001fea:    f8c2c014    ....    STR      r12,[r2,#0x14]
        0x08001fee:    e00a        ..      B        0x8002006 ; GPIO_Init + 150
        0x08001ff0:    f891c003    ....    LDRB     r12,[r1,#3]
        0x08001ff4:    f1bc0f48    ..H.    CMP      r12,#0x48
        0x08001ff8:    d105        ..      BNE      0x8002006 ; GPIO_Init + 150
        0x08001ffa:    f04f0c01    O...    MOV      r12,#1
        0x08001ffe:    fa0cfc00    ....    LSL      r12,r12,r0
        0x08002002:    f8c2c010    ....    STR      r12,[r2,#0x10]
        0x08002006:    1c40        @.      ADDS     r0,r0,#1
        0x08002008:    2808        .(      CMP      r0,#8
        0x0800200a:    d3d1        ..      BCC      0x8001fb0 ; GPIO_Init + 64
        0x0800200c:    6014        .`      STR      r4,[r2,#0]
        0x0800200e:    f8b1c000    ....    LDRH     r12,[r1,#0]
        0x08002012:    f1bc0fff    ....    CMP      r12,#0xff
        0x08002016:    dd34        4.      BLE      0x8002082 ; GPIO_Init + 274
        0x08002018:    6854        Th      LDR      r4,[r2,#4]
        0x0800201a:    2000        .       MOVS     r0,#0
        0x0800201c:    e02e        ..      B        0x800207c ; GPIO_Init + 268
        0x0800201e:    f1000c08    ....    ADD      r12,r0,#8
        0x08002022:    f04f0801    O...    MOV      r8,#1
        0x08002026:    fa08f30c    ....    LSL      r3,r8,r12
        0x0800202a:    f8b1c000    ....    LDRH     r12,[r1,#0]
        0x0800202e:    ea0c0603    ....    AND      r6,r12,r3
        0x08002032:    429e        .B      CMP      r6,r3
        0x08002034:    d121        !.      BNE      0x800207a ; GPIO_Init + 266
        0x08002036:    0083        ..      LSLS     r3,r0,#2
        0x08002038:    f04f0c0f    O...    MOV      r12,#0xf
        0x0800203c:    fa0cf703    ....    LSL      r7,r12,r3
        0x08002040:    43bc        .C      BICS     r4,r4,r7
        0x08002042:    fa05fc03    ....    LSL      r12,r5,r3
        0x08002046:    ea4c0404    L...    ORR      r4,r12,r4
        0x0800204a:    f891c003    ....    LDRB     r12,[r1,#3]
        0x0800204e:    f1bc0f28    ..(.    CMP      r12,#0x28
        0x08002052:    d105        ..      BNE      0x8002060 ; GPIO_Init + 240
        0x08002054:    f1000c08    ....    ADD      r12,r0,#8
        0x08002058:    fa08f80c    ....    LSL      r8,r8,r12
        0x0800205c:    f8c28014    ....    STR      r8,[r2,#0x14]
        0x08002060:    f891c003    ....    LDRB     r12,[r1,#3]
        0x08002064:    f1bc0f48    ..H.    CMP      r12,#0x48
        0x08002068:    d107        ..      BNE      0x800207a ; GPIO_Init + 266
        0x0800206a:    f1000c08    ....    ADD      r12,r0,#8
        0x0800206e:    f04f0801    O...    MOV      r8,#1
        0x08002072:    fa08f80c    ....    LSL      r8,r8,r12
        0x08002076:    f8c28010    ....    STR      r8,[r2,#0x10]
        0x0800207a:    1c40        @.      ADDS     r0,r0,#1
        0x0800207c:    2808        .(      CMP      r0,#8
        0x0800207e:    d3ce        ..      BCC      0x800201e ; GPIO_Init + 174
        0x08002080:    6054        T`      STR      r4,[r2,#4]
        0x08002082:    e8bd81f0    ....    POP      {r4-r8,pc}
    i.GPIO_ReadInputDataBit
    GPIO_ReadInputDataBit
        0x08002086:    4602        .F      MOV      r2,r0
        0x08002088:    2000        .       MOVS     r0,#0
        0x0800208a:    6893        .h      LDR      r3,[r2,#8]
        0x0800208c:    400b        .@      ANDS     r3,r3,r1
        0x0800208e:    b10b        ..      CBZ      r3,0x8002094 ; GPIO_ReadInputDataBit + 14
        0x08002090:    2001        .       MOVS     r0,#1
        0x08002092:    e000        ..      B        0x8002096 ; GPIO_ReadInputDataBit + 16
        0x08002094:    2000        .       MOVS     r0,#0
        0x08002096:    4770        pG      BX       lr
    i.GPIO_SetBits
    GPIO_SetBits
        0x08002098:    6101        .a      STR      r1,[r0,#0x10]
        0x0800209a:    4770        pG      BX       lr
    i.HardFault_Handler
    HardFault_Handler
        0x0800209c:    bf00        ..      NOP      
        0x0800209e:    e7fe        ..      B        0x800209e ; HardFault_Handler + 2
    i.LED_Init
    LED_Init
        0x080020a0:    b508        ..      PUSH     {r3,lr}
        0x080020a2:    2101        .!      MOVS     r1,#1
        0x080020a4:    2048        H       MOVS     r0,#0x48
        0x080020a6:    f000f889    ....    BL       RCC_APB2PeriphClockCmd ; 0x80021bc
        0x080020aa:    2020                MOVS     r0,#0x20
        0x080020ac:    f8ad0000    ....    STRH     r0,[sp,#0]
        0x080020b0:    2010        .       MOVS     r0,#0x10
        0x080020b2:    f88d0003    ....    STRB     r0,[sp,#3]
        0x080020b6:    2003        .       MOVS     r0,#3
        0x080020b8:    f88d0002    ....    STRB     r0,[sp,#2]
        0x080020bc:    4669        iF      MOV      r1,sp
        0x080020be:    4809        .H      LDR      r0,[pc,#36] ; [0x80020e4] = 0x40010c00
        0x080020c0:    f7ffff56    ..V.    BL       GPIO_Init ; 0x8001f70
        0x080020c4:    2120         !      MOVS     r1,#0x20
        0x080020c6:    4807        .H      LDR      r0,[pc,#28] ; [0x80020e4] = 0x40010c00
        0x080020c8:    f7ffffe6    ....    BL       GPIO_SetBits ; 0x8002098
        0x080020cc:    2020                MOVS     r0,#0x20
        0x080020ce:    f8ad0000    ....    STRH     r0,[sp,#0]
        0x080020d2:    4669        iF      MOV      r1,sp
        0x080020d4:    4804        .H      LDR      r0,[pc,#16] ; [0x80020e8] = 0x40011800
        0x080020d6:    f7ffff4b    ..K.    BL       GPIO_Init ; 0x8001f70
        0x080020da:    2120         !      MOVS     r1,#0x20
        0x080020dc:    4802        .H      LDR      r0,[pc,#8] ; [0x80020e8] = 0x40011800
        0x080020de:    f7ffffdb    ....    BL       GPIO_SetBits ; 0x8002098
        0x080020e2:    bd08        ..      POP      {r3,pc}
    $d
        0x080020e4:    40010c00    ...@    DCD    1073810432
        0x080020e8:    40011800    ...@    DCD    1073813504
    $t
    i.MemManage_Handler
    MemManage_Handler
        0x080020ec:    bf00        ..      NOP      
        0x080020ee:    e7fe        ..      B        0x80020ee ; MemManage_Handler + 2
    i.NMI_Handler
    NMI_Handler
        0x080020f0:    4770        pG      BX       lr
        0x080020f2:    0000        ..      MOVS     r0,r0
    i.NVIC_Init
    NVIC_Init
        0x080020f4:    b570        p.      PUSH     {r4-r6,lr}
        0x080020f6:    2100        .!      MOVS     r1,#0
        0x080020f8:    2300        .#      MOVS     r3,#0
        0x080020fa:    220f        ."      MOVS     r2,#0xf
        0x080020fc:    78c4        .x      LDRB     r4,[r0,#3]
        0x080020fe:    b304        ..      CBZ      r4,0x8002142 ; NVIC_Init + 78
        0x08002100:    4c15        .L      LDR      r4,[pc,#84] ; [0x8002158] = 0xe000ed0c
        0x08002102:    6824        $h      LDR      r4,[r4,#0]
        0x08002104:    f40464e0    ...d    AND      r4,r4,#0x700
        0x08002108:    f5c464e0    ...d    RSB      r4,r4,#0x700
        0x0800210c:    0a21        !.      LSRS     r1,r4,#8
        0x0800210e:    f1c10304    ....    RSB      r3,r1,#4
        0x08002112:    40ca        .@      LSRS     r2,r2,r1
        0x08002114:    7844        Dx      LDRB     r4,[r0,#1]
        0x08002116:    fa04f103    ....    LSL      r1,r4,r3
        0x0800211a:    7884        .x      LDRB     r4,[r0,#2]
        0x0800211c:    4014        .@      ANDS     r4,r4,r2
        0x0800211e:    4321        !C      ORRS     r1,r1,r4
        0x08002120:    0109        ..      LSLS     r1,r1,#4
        0x08002122:    4c0e        .L      LDR      r4,[pc,#56] ; [0x800215c] = 0xe000e400
        0x08002124:    7806        .x      LDRB     r6,[r0,#0]
        0x08002126:    55a1        .U      STRB     r1,[r4,r6]
        0x08002128:    7804        .x      LDRB     r4,[r0,#0]
        0x0800212a:    f004051f    ....    AND      r5,r4,#0x1f
        0x0800212e:    2401        .$      MOVS     r4,#1
        0x08002130:    40ac        .@      LSLS     r4,r4,r5
        0x08002132:    7805        .x      LDRB     r5,[r0,#0]
        0x08002134:    116d        m.      ASRS     r5,r5,#5
        0x08002136:    00ad        ..      LSLS     r5,r5,#2
        0x08002138:    f10525e0    ...%    ADD      r5,r5,#0xe000e000
        0x0800213c:    f8c54100    ...A    STR      r4,[r5,#0x100]
        0x08002140:    e009        ..      B        0x8002156 ; NVIC_Init + 98
        0x08002142:    7804        .x      LDRB     r4,[r0,#0]
        0x08002144:    f004051f    ....    AND      r5,r4,#0x1f
        0x08002148:    2401        .$      MOVS     r4,#1
        0x0800214a:    40ac        .@      LSLS     r4,r4,r5
        0x0800214c:    4d04        .M      LDR      r5,[pc,#16] ; [0x8002160] = 0xe000e180
        0x0800214e:    7806        .x      LDRB     r6,[r0,#0]
        0x08002150:    1176        v.      ASRS     r6,r6,#5
        0x08002152:    f8454026    E.&@    STR      r4,[r5,r6,LSL #2]
        0x08002156:    bd70        p.      POP      {r4-r6,pc}
    $d
        0x08002158:    e000ed0c    ....    DCD    3758157068
        0x0800215c:    e000e400    ....    DCD    3758154752
        0x08002160:    e000e180    ....    DCD    3758154112
    $t
    i.NVIC_PriorityGroupConfig
    NVIC_PriorityGroupConfig
        0x08002164:    4902        .I      LDR      r1,[pc,#8] ; [0x8002170] = 0x5fa0000
        0x08002166:    4301        .C      ORRS     r1,r1,r0
        0x08002168:    4a02        .J      LDR      r2,[pc,#8] ; [0x8002174] = 0xe000ed0c
        0x0800216a:    6011        .`      STR      r1,[r2,#0]
        0x0800216c:    4770        pG      BX       lr
    $d
        0x0800216e:    0000        ..      DCW    0
        0x08002170:    05fa0000    ....    DCD    100270080
        0x08002174:    e000ed0c    ....    DCD    3758157068
    $t
    i.PendSV_Handler
    PendSV_Handler
        0x08002178:    4770        pG      BX       lr
        0x0800217a:    0000        ..      MOVS     r0,r0
    i.RCC_APB1PeriphClockCmd
    RCC_APB1PeriphClockCmd
        0x0800217c:    b129        ).      CBZ      r1,0x800218a ; RCC_APB1PeriphClockCmd + 14
        0x0800217e:    4a06        .J      LDR      r2,[pc,#24] ; [0x8002198] = 0x40021000
        0x08002180:    69d2        .i      LDR      r2,[r2,#0x1c]
        0x08002182:    4302        .C      ORRS     r2,r2,r0
        0x08002184:    4b04        .K      LDR      r3,[pc,#16] ; [0x8002198] = 0x40021000
        0x08002186:    61da        .a      STR      r2,[r3,#0x1c]
        0x08002188:    e004        ..      B        0x8002194 ; RCC_APB1PeriphClockCmd + 24
        0x0800218a:    4a03        .J      LDR      r2,[pc,#12] ; [0x8002198] = 0x40021000
        0x0800218c:    69d2        .i      LDR      r2,[r2,#0x1c]
        0x0800218e:    4382        .C      BICS     r2,r2,r0
        0x08002190:    4b01        .K      LDR      r3,[pc,#4] ; [0x8002198] = 0x40021000
        0x08002192:    61da        .a      STR      r2,[r3,#0x1c]
        0x08002194:    4770        pG      BX       lr
    $d
        0x08002196:    0000        ..      DCW    0
        0x08002198:    40021000    ...@    DCD    1073876992
    $t
    i.RCC_APB1PeriphResetCmd
    RCC_APB1PeriphResetCmd
        0x0800219c:    b129        ).      CBZ      r1,0x80021aa ; RCC_APB1PeriphResetCmd + 14
        0x0800219e:    4a06        .J      LDR      r2,[pc,#24] ; [0x80021b8] = 0x40021000
        0x080021a0:    6912        .i      LDR      r2,[r2,#0x10]
        0x080021a2:    4302        .C      ORRS     r2,r2,r0
        0x080021a4:    4b04        .K      LDR      r3,[pc,#16] ; [0x80021b8] = 0x40021000
        0x080021a6:    611a        .a      STR      r2,[r3,#0x10]
        0x080021a8:    e004        ..      B        0x80021b4 ; RCC_APB1PeriphResetCmd + 24
        0x080021aa:    4a03        .J      LDR      r2,[pc,#12] ; [0x80021b8] = 0x40021000
        0x080021ac:    6912        .i      LDR      r2,[r2,#0x10]
        0x080021ae:    4382        .C      BICS     r2,r2,r0
        0x080021b0:    4b01        .K      LDR      r3,[pc,#4] ; [0x80021b8] = 0x40021000
        0x080021b2:    611a        .a      STR      r2,[r3,#0x10]
        0x080021b4:    4770        pG      BX       lr
    $d
        0x080021b6:    0000        ..      DCW    0
        0x080021b8:    40021000    ...@    DCD    1073876992
    $t
    i.RCC_APB2PeriphClockCmd
    RCC_APB2PeriphClockCmd
        0x080021bc:    b129        ).      CBZ      r1,0x80021ca ; RCC_APB2PeriphClockCmd + 14
        0x080021be:    4a06        .J      LDR      r2,[pc,#24] ; [0x80021d8] = 0x40021000
        0x080021c0:    6992        .i      LDR      r2,[r2,#0x18]
        0x080021c2:    4302        .C      ORRS     r2,r2,r0
        0x080021c4:    4b04        .K      LDR      r3,[pc,#16] ; [0x80021d8] = 0x40021000
        0x080021c6:    619a        .a      STR      r2,[r3,#0x18]
        0x080021c8:    e004        ..      B        0x80021d4 ; RCC_APB2PeriphClockCmd + 24
        0x080021ca:    4a03        .J      LDR      r2,[pc,#12] ; [0x80021d8] = 0x40021000
        0x080021cc:    6992        .i      LDR      r2,[r2,#0x18]
        0x080021ce:    4382        .C      BICS     r2,r2,r0
        0x080021d0:    4b01        .K      LDR      r3,[pc,#4] ; [0x80021d8] = 0x40021000
        0x080021d2:    619a        .a      STR      r2,[r3,#0x18]
        0x080021d4:    4770        pG      BX       lr
    $d
        0x080021d6:    0000        ..      DCW    0
        0x080021d8:    40021000    ...@    DCD    1073876992
    $t
    i.RCC_APB2PeriphResetCmd
    RCC_APB2PeriphResetCmd
        0x080021dc:    b129        ).      CBZ      r1,0x80021ea ; RCC_APB2PeriphResetCmd + 14
        0x080021de:    4a06        .J      LDR      r2,[pc,#24] ; [0x80021f8] = 0x40021000
        0x080021e0:    68d2        .h      LDR      r2,[r2,#0xc]
        0x080021e2:    4302        .C      ORRS     r2,r2,r0
        0x080021e4:    4b04        .K      LDR      r3,[pc,#16] ; [0x80021f8] = 0x40021000
        0x080021e6:    60da        .`      STR      r2,[r3,#0xc]
        0x080021e8:    e004        ..      B        0x80021f4 ; RCC_APB2PeriphResetCmd + 24
        0x080021ea:    4a03        .J      LDR      r2,[pc,#12] ; [0x80021f8] = 0x40021000
        0x080021ec:    68d2        .h      LDR      r2,[r2,#0xc]
        0x080021ee:    4382        .C      BICS     r2,r2,r0
        0x080021f0:    4b01        .K      LDR      r3,[pc,#4] ; [0x80021f8] = 0x40021000
        0x080021f2:    60da        .`      STR      r2,[r3,#0xc]
        0x080021f4:    4770        pG      BX       lr
    $d
        0x080021f6:    0000        ..      DCW    0
        0x080021f8:    40021000    ...@    DCD    1073876992
    $t
    i.RCC_GetClocksFreq
    RCC_GetClocksFreq
        0x080021fc:    b530        0.      PUSH     {r4,r5,lr}
        0x080021fe:    2100        .!      MOVS     r1,#0
        0x08002200:    2200        ."      MOVS     r2,#0
        0x08002202:    2400        .$      MOVS     r4,#0
        0x08002204:    2300        .#      MOVS     r3,#0
        0x08002206:    4d2d        -M      LDR      r5,[pc,#180] ; [0x80022bc] = 0x40021000
        0x08002208:    686d        mh      LDR      r5,[r5,#4]
        0x0800220a:    f005010c    ....    AND      r1,r5,#0xc
        0x0800220e:    b121        !.      CBZ      r1,0x800221a ; RCC_GetClocksFreq + 30
        0x08002210:    2904        .)      CMP      r1,#4
        0x08002212:    d005        ..      BEQ      0x8002220 ; RCC_GetClocksFreq + 36
        0x08002214:    2908        .)      CMP      r1,#8
        0x08002216:    d123        #.      BNE      0x8002260 ; RCC_GetClocksFreq + 100
        0x08002218:    e005        ..      B        0x8002226 ; RCC_GetClocksFreq + 42
        0x0800221a:    4d29        )M      LDR      r5,[pc,#164] ; [0x80022c0] = 0x7a1200
        0x0800221c:    6005        .`      STR      r5,[r0,#0]
        0x0800221e:    e022        ".      B        0x8002266 ; RCC_GetClocksFreq + 106
        0x08002220:    4d27        'M      LDR      r5,[pc,#156] ; [0x80022c0] = 0x7a1200
        0x08002222:    6005        .`      STR      r5,[r0,#0]
        0x08002224:    e01f        ..      B        0x8002266 ; RCC_GetClocksFreq + 106
        0x08002226:    4d25        %M      LDR      r5,[pc,#148] ; [0x80022bc] = 0x40021000
        0x08002228:    686d        mh      LDR      r5,[r5,#4]
        0x0800222a:    f4051270    ..p.    AND      r2,r5,#0x3c0000
        0x0800222e:    4d23        #M      LDR      r5,[pc,#140] ; [0x80022bc] = 0x40021000
        0x08002230:    686d        mh      LDR      r5,[r5,#4]
        0x08002232:    f4053480    ...4    AND      r4,r5,#0x10000
        0x08002236:    2502        .%      MOVS     r5,#2
        0x08002238:    eb054292    ...B    ADD      r2,r5,r2,LSR #18
        0x0800223c:    b91c        ..      CBNZ     r4,0x8002246 ; RCC_GetClocksFreq + 74
        0x0800223e:    4d21        !M      LDR      r5,[pc,#132] ; [0x80022c4] = 0x3d0900
        0x08002240:    4355        UC      MULS     r5,r2,r5
        0x08002242:    6005        .`      STR      r5,[r0,#0]
        0x08002244:    e00b        ..      B        0x800225e ; RCC_GetClocksFreq + 98
        0x08002246:    4d1d        .M      LDR      r5,[pc,#116] ; [0x80022bc] = 0x40021000
        0x08002248:    686d        mh      LDR      r5,[r5,#4]
        0x0800224a:    f4053500    ...5    AND      r5,r5,#0x20000
        0x0800224e:    b11d        ..      CBZ      r5,0x8002258 ; RCC_GetClocksFreq + 92
        0x08002250:    4d1c        .M      LDR      r5,[pc,#112] ; [0x80022c4] = 0x3d0900
        0x08002252:    4355        UC      MULS     r5,r2,r5
        0x08002254:    6005        .`      STR      r5,[r0,#0]
        0x08002256:    e002        ..      B        0x800225e ; RCC_GetClocksFreq + 98
        0x08002258:    4d19        .M      LDR      r5,[pc,#100] ; [0x80022c0] = 0x7a1200
        0x0800225a:    4355        UC      MULS     r5,r2,r5
        0x0800225c:    6005        .`      STR      r5,[r0,#0]
        0x0800225e:    e002        ..      B        0x8002266 ; RCC_GetClocksFreq + 106
        0x08002260:    4d17        .M      LDR      r5,[pc,#92] ; [0x80022c0] = 0x7a1200
        0x08002262:    6005        .`      STR      r5,[r0,#0]
        0x08002264:    bf00        ..      NOP      
        0x08002266:    bf00        ..      NOP      
        0x08002268:    4d14        .M      LDR      r5,[pc,#80] ; [0x80022bc] = 0x40021000
        0x0800226a:    686d        mh      LDR      r5,[r5,#4]
        0x0800226c:    f00501f0    ....    AND      r1,r5,#0xf0
        0x08002270:    0909        ..      LSRS     r1,r1,#4
        0x08002272:    4d15        .M      LDR      r5,[pc,#84] ; [0x80022c8] = 0x2000003d
        0x08002274:    5c6b        k\      LDRB     r3,[r5,r1]
        0x08002276:    6805        .h      LDR      r5,[r0,#0]
        0x08002278:    40dd        .@      LSRS     r5,r5,r3
        0x0800227a:    6045        E`      STR      r5,[r0,#4]
        0x0800227c:    4d0f        .M      LDR      r5,[pc,#60] ; [0x80022bc] = 0x40021000
        0x0800227e:    686d        mh      LDR      r5,[r5,#4]
        0x08002280:    f40561e0    ...a    AND      r1,r5,#0x700
        0x08002284:    0a09        ..      LSRS     r1,r1,#8
        0x08002286:    4d10        .M      LDR      r5,[pc,#64] ; [0x80022c8] = 0x2000003d
        0x08002288:    5c6b        k\      LDRB     r3,[r5,r1]
        0x0800228a:    6845        Eh      LDR      r5,[r0,#4]
        0x0800228c:    40dd        .@      LSRS     r5,r5,r3
        0x0800228e:    6085        .`      STR      r5,[r0,#8]
        0x08002290:    4d0a        .M      LDR      r5,[pc,#40] ; [0x80022bc] = 0x40021000
        0x08002292:    686d        mh      LDR      r5,[r5,#4]
        0x08002294:    f4055160    ..`Q    AND      r1,r5,#0x3800
        0x08002298:    0ac9        ..      LSRS     r1,r1,#11
        0x0800229a:    4d0b        .M      LDR      r5,[pc,#44] ; [0x80022c8] = 0x2000003d
        0x0800229c:    5c6b        k\      LDRB     r3,[r5,r1]
        0x0800229e:    6845        Eh      LDR      r5,[r0,#4]
        0x080022a0:    40dd        .@      LSRS     r5,r5,r3
        0x080022a2:    60c5        .`      STR      r5,[r0,#0xc]
        0x080022a4:    4d05        .M      LDR      r5,[pc,#20] ; [0x80022bc] = 0x40021000
        0x080022a6:    686d        mh      LDR      r5,[r5,#4]
        0x080022a8:    f4054140    ..@A    AND      r1,r5,#0xc000
        0x080022ac:    0b89        ..      LSRS     r1,r1,#14
        0x080022ae:    4d07        .M      LDR      r5,[pc,#28] ; [0x80022cc] = 0x2000004d
        0x080022b0:    5c6b        k\      LDRB     r3,[r5,r1]
        0x080022b2:    68c5        .h      LDR      r5,[r0,#0xc]
        0x080022b4:    fbb5f5f3    ....    UDIV     r5,r5,r3
        0x080022b8:    6105        .a      STR      r5,[r0,#0x10]
        0x080022ba:    bd30        0.      POP      {r4,r5,pc}
    $d
        0x080022bc:    40021000    ...@    DCD    1073876992
        0x080022c0:    007a1200    ..z.    DCD    8000000
        0x080022c4:    003d0900    ..=.    DCD    4000000
        0x080022c8:    2000003d    =..     DCD    536870973
        0x080022cc:    2000004d    M..     DCD    536870989
    $t
    i.SDIO_ClearFlag
    SDIO_ClearFlag
        0x080022d0:    4901        .I      LDR      r1,[pc,#4] ; [0x80022d8] = 0x40018000
        0x080022d2:    6388        .c      STR      r0,[r1,#0x38]
        0x080022d4:    4770        pG      BX       lr
    $d
        0x080022d6:    0000        ..      DCW    0
        0x080022d8:    40018000    ...@    DCD    1073840128
    $t
    i.SDIO_GetFlagStatus
    SDIO_GetFlagStatus
        0x080022dc:    4601        .F      MOV      r1,r0
        0x080022de:    2000        .       MOVS     r0,#0
        0x080022e0:    4a03        .J      LDR      r2,[pc,#12] ; [0x80022f0] = 0x40018000
        0x080022e2:    6b52        Rk      LDR      r2,[r2,#0x34]
        0x080022e4:    400a        .@      ANDS     r2,r2,r1
        0x080022e6:    b10a        ..      CBZ      r2,0x80022ec ; SDIO_GetFlagStatus + 16
        0x080022e8:    2001        .       MOVS     r0,#1
        0x080022ea:    e000        ..      B        0x80022ee ; SDIO_GetFlagStatus + 18
        0x080022ec:    2000        .       MOVS     r0,#0
        0x080022ee:    4770        pG      BX       lr
    $d
        0x080022f0:    40018000    ...@    DCD    1073840128
    $t
    i.SDIO_IRQHandler
    SDIO_IRQHandler
        0x080022f4:    b510        ..      PUSH     {r4,lr}
        0x080022f6:    f000f817    ....    BL       SD_ProcessIRQSrc ; 0x8002328
        0x080022fa:    bd10        ..      POP      {r4,pc}
    i.SDIO_SendCommand
    SDIO_SendCommand
        0x080022fc:    2100        .!      MOVS     r1,#0
        0x080022fe:    4b09        .K      LDR      r3,[pc,#36] ; [0x8002324] = 0x40018000
        0x08002300:    6802        .h      LDR      r2,[r0,#0]
        0x08002302:    609a        .`      STR      r2,[r3,#8]
        0x08002304:    461a        .F      MOV      r2,r3
        0x08002306:    68d1        .h      LDR      r1,[r2,#0xc]
        0x08002308:    f36f010a    o...    BFC      r1,#0,#11
        0x0800230c:    e9d02301    ...#    LDRD     r2,r3,[r0,#4]
        0x08002310:    431a        .C      ORRS     r2,r2,r3
        0x08002312:    68c3        .h      LDR      r3,[r0,#0xc]
        0x08002314:    431a        .C      ORRS     r2,r2,r3
        0x08002316:    6903        .i      LDR      r3,[r0,#0x10]
        0x08002318:    431a        .C      ORRS     r2,r2,r3
        0x0800231a:    4311        .C      ORRS     r1,r1,r2
        0x0800231c:    4a01        .J      LDR      r2,[pc,#4] ; [0x8002324] = 0x40018000
        0x0800231e:    60d1        .`      STR      r1,[r2,#0xc]
        0x08002320:    4770        pG      BX       lr
    $d
        0x08002322:    0000        ..      DCW    0
        0x08002324:    40018000    ...@    DCD    1073840128
    $t
    i.SD_ProcessIRQSrc
    SD_ProcessIRQSrc
        0x08002328:    b510        ..      PUSH     {r4,lr}
        0x0800232a:    4849        IH      LDR      r0,[pc,#292] ; [0x8002450] = 0x40018000
        0x0800232c:    6b40        @k      LDR      r0,[r0,#0x34]
        0x0800232e:    f4007080    ...p    AND      r0,r0,#0x100
        0x08002332:    b370        p.      CBZ      r0,0x8002392 ; SD_ProcessIRQSrc + 106
        0x08002334:    4847        GH      LDR      r0,[pc,#284] ; [0x8002454] = 0x20000029
        0x08002336:    7800        .x      LDRB     r0,[r0,#0]
        0x08002338:    2801        .(      CMP      r0,#1
        0x0800233a:    d114        ..      BNE      0x8002366 ; SD_ProcessIRQSrc + 62
        0x0800233c:    2000        .       MOVS     r0,#0
        0x0800233e:    4946        FI      LDR      r1,[pc,#280] ; [0x8002458] = 0x20000138
        0x08002340:    6008        .`      STR      r0,[r1,#0]
        0x08002342:    200c        .       MOVS     r0,#0xc
        0x08002344:    6048        H`      STR      r0,[r1,#4]
        0x08002346:    2040        @       MOVS     r0,#0x40
        0x08002348:    6088        .`      STR      r0,[r1,#8]
        0x0800234a:    2000        .       MOVS     r0,#0
        0x0800234c:    60c8        .`      STR      r0,[r1,#0xc]
        0x0800234e:    f44f6080    O..`    MOV      r0,#0x400
        0x08002352:    6108        .a      STR      r0,[r1,#0x10]
        0x08002354:    4608        .F      MOV      r0,r1
        0x08002356:    f7ffffd1    ....    BL       SDIO_SendCommand ; 0x80022fc
        0x0800235a:    200c        .       MOVS     r0,#0xc
        0x0800235c:    f7fffc5c    ..\.    BL       CmdResp1Error ; 0x8001c18
        0x08002360:    493e        >I      LDR      r1,[pc,#248] ; [0x800245c] = 0x2000002a
        0x08002362:    7008        .p      STRB     r0,[r1,#0]
        0x08002364:    e002        ..      B        0x800236c ; SD_ProcessIRQSrc + 68
        0x08002366:    2000        .       MOVS     r0,#0
        0x08002368:    493c        <I      LDR      r1,[pc,#240] ; [0x800245c] = 0x2000002a
        0x0800236a:    7008        .p      STRB     r0,[r1,#0]
        0x0800236c:    4838        8H      LDR      r0,[pc,#224] ; [0x8002450] = 0x40018000
        0x0800236e:    6b80        .k      LDR      r0,[r0,#0x38]
        0x08002370:    f4407080    @..p    ORR      r0,r0,#0x100
        0x08002374:    4936        6I      LDR      r1,[pc,#216] ; [0x8002450] = 0x40018000
        0x08002376:    6388        .c      STR      r0,[r1,#0x38]
        0x08002378:    4608        .F      MOV      r0,r1
        0x0800237a:    6bc0        .k      LDR      r0,[r0,#0x3c]
        0x0800237c:    f24c313a    L.:1    MOV      r1,#0xc33a
        0x08002380:    4388        .C      BICS     r0,r0,r1
        0x08002382:    4933        3I      LDR      r1,[pc,#204] ; [0x8002450] = 0x40018000
        0x08002384:    63c8        .c      STR      r0,[r1,#0x3c]
        0x08002386:    2001        .       MOVS     r0,#1
        0x08002388:    4935        5I      LDR      r1,[pc,#212] ; [0x8002460] = 0x2000002b
        0x0800238a:    7008        .p      STRB     r0,[r1,#0]
        0x0800238c:    4833        3H      LDR      r0,[pc,#204] ; [0x800245c] = 0x2000002a
        0x0800238e:    7800        .x      LDRB     r0,[r0,#0]
        0x08002390:    bd10        ..      POP      {r4,pc}
        0x08002392:    e7ff        ..      B        0x8002394 ; SD_ProcessIRQSrc + 108
        0x08002394:    2002        .       MOVS     r0,#2
        0x08002396:    f7ffffa1    ....    BL       SDIO_GetFlagStatus ; 0x80022dc
        0x0800239a:    b168        h.      CBZ      r0,0x80023b8 ; SD_ProcessIRQSrc + 144
        0x0800239c:    2002        .       MOVS     r0,#2
        0x0800239e:    f7ffff97    ....    BL       SDIO_ClearFlag ; 0x80022d0
        0x080023a2:    482b        +H      LDR      r0,[pc,#172] ; [0x8002450] = 0x40018000
        0x080023a4:    6bc0        .k      LDR      r0,[r0,#0x3c]
        0x080023a6:    f24c313a    L.:1    MOV      r1,#0xc33a
        0x080023aa:    4388        .C      BICS     r0,r0,r1
        0x080023ac:    4928        (I      LDR      r1,[pc,#160] ; [0x8002450] = 0x40018000
        0x080023ae:    63c8        .c      STR      r0,[r1,#0x3c]
        0x080023b0:    2002        .       MOVS     r0,#2
        0x080023b2:    492a        *I      LDR      r1,[pc,#168] ; [0x800245c] = 0x2000002a
        0x080023b4:    7008        .p      STRB     r0,[r1,#0]
        0x080023b6:    e7eb        ..      B        0x8002390 ; SD_ProcessIRQSrc + 104
        0x080023b8:    2008        .       MOVS     r0,#8
        0x080023ba:    f7ffff8f    ....    BL       SDIO_GetFlagStatus ; 0x80022dc
        0x080023be:    b168        h.      CBZ      r0,0x80023dc ; SD_ProcessIRQSrc + 180
        0x080023c0:    2008        .       MOVS     r0,#8
        0x080023c2:    f7ffff85    ....    BL       SDIO_ClearFlag ; 0x80022d0
        0x080023c6:    4822        "H      LDR      r0,[pc,#136] ; [0x8002450] = 0x40018000
        0x080023c8:    6bc0        .k      LDR      r0,[r0,#0x3c]
        0x080023ca:    f24c313a    L.:1    MOV      r1,#0xc33a
        0x080023ce:    4388        .C      BICS     r0,r0,r1
        0x080023d0:    491f        .I      LDR      r1,[pc,#124] ; [0x8002450] = 0x40018000
        0x080023d2:    63c8        .c      STR      r0,[r1,#0x3c]
        0x080023d4:    2004        .       MOVS     r0,#4
        0x080023d6:    4921        !I      LDR      r1,[pc,#132] ; [0x800245c] = 0x2000002a
        0x080023d8:    7008        .p      STRB     r0,[r1,#0]
        0x080023da:    e7d9        ..      B        0x8002390 ; SD_ProcessIRQSrc + 104
        0x080023dc:    2020                MOVS     r0,#0x20
        0x080023de:    f7ffff7d    ..}.    BL       SDIO_GetFlagStatus ; 0x80022dc
        0x080023e2:    b168        h.      CBZ      r0,0x8002400 ; SD_ProcessIRQSrc + 216
        0x080023e4:    2020                MOVS     r0,#0x20
        0x080023e6:    f7ffff73    ..s.    BL       SDIO_ClearFlag ; 0x80022d0
        0x080023ea:    4819        .H      LDR      r0,[pc,#100] ; [0x8002450] = 0x40018000
        0x080023ec:    6bc0        .k      LDR      r0,[r0,#0x3c]
        0x080023ee:    f24c313a    L.:1    MOV      r1,#0xc33a
        0x080023f2:    4388        .C      BICS     r0,r0,r1
        0x080023f4:    4916        .I      LDR      r1,[pc,#88] ; [0x8002450] = 0x40018000
        0x080023f6:    63c8        .c      STR      r0,[r1,#0x3c]
        0x080023f8:    2006        .       MOVS     r0,#6
        0x080023fa:    4918        .I      LDR      r1,[pc,#96] ; [0x800245c] = 0x2000002a
        0x080023fc:    7008        .p      STRB     r0,[r1,#0]
        0x080023fe:    e7c7        ..      B        0x8002390 ; SD_ProcessIRQSrc + 104
        0x08002400:    2010        .       MOVS     r0,#0x10
        0x08002402:    f7ffff6b    ..k.    BL       SDIO_GetFlagStatus ; 0x80022dc
        0x08002406:    b168        h.      CBZ      r0,0x8002424 ; SD_ProcessIRQSrc + 252
        0x08002408:    2010        .       MOVS     r0,#0x10
        0x0800240a:    f7ffff61    ..a.    BL       SDIO_ClearFlag ; 0x80022d0
        0x0800240e:    4810        .H      LDR      r0,[pc,#64] ; [0x8002450] = 0x40018000
        0x08002410:    6bc0        .k      LDR      r0,[r0,#0x3c]
        0x08002412:    f24c313a    L.:1    MOV      r1,#0xc33a
        0x08002416:    4388        .C      BICS     r0,r0,r1
        0x08002418:    490d        .I      LDR      r1,[pc,#52] ; [0x8002450] = 0x40018000
        0x0800241a:    63c8        .c      STR      r0,[r1,#0x3c]
        0x0800241c:    2005        .       MOVS     r0,#5
        0x0800241e:    490f        .I      LDR      r1,[pc,#60] ; [0x800245c] = 0x2000002a
        0x08002420:    7008        .p      STRB     r0,[r1,#0]
        0x08002422:    e7b5        ..      B        0x8002390 ; SD_ProcessIRQSrc + 104
        0x08002424:    f44f7000    O..p    MOV      r0,#0x200
        0x08002428:    f7ffff58    ..X.    BL       SDIO_GetFlagStatus ; 0x80022dc
        0x0800242c:    b170        p.      CBZ      r0,0x800244c ; SD_ProcessIRQSrc + 292
        0x0800242e:    f44f7000    O..p    MOV      r0,#0x200
        0x08002432:    f7ffff4d    ..M.    BL       SDIO_ClearFlag ; 0x80022d0
        0x08002436:    4806        .H      LDR      r0,[pc,#24] ; [0x8002450] = 0x40018000
        0x08002438:    6bc0        .k      LDR      r0,[r0,#0x3c]
        0x0800243a:    f24c313a    L.:1    MOV      r1,#0xc33a
        0x0800243e:    4388        .C      BICS     r0,r0,r1
        0x08002440:    4903        .I      LDR      r1,[pc,#12] ; [0x8002450] = 0x40018000
        0x08002442:    63c8        .c      STR      r0,[r1,#0x3c]
        0x08002444:    2007        .       MOVS     r0,#7
        0x08002446:    4905        .I      LDR      r1,[pc,#20] ; [0x800245c] = 0x2000002a
        0x08002448:    7008        .p      STRB     r0,[r1,#0]
        0x0800244a:    e7a1        ..      B        0x8002390 ; SD_ProcessIRQSrc + 104
        0x0800244c:    2000        .       MOVS     r0,#0
        0x0800244e:    e79f        ..      B        0x8002390 ; SD_ProcessIRQSrc + 104
    $d
        0x08002450:    40018000    ...@    DCD    1073840128
        0x08002454:    20000029    )..     DCD    536870953
        0x08002458:    20000138    8..     DCD    536871224
        0x0800245c:    2000002a    *..     DCD    536870954
        0x08002460:    2000002b    +..     DCD    536870955
    $t
    i.SVC_Handler
    SVC_Handler
        0x08002464:    4770        pG      BX       lr
    i.SetSysClock
    SetSysClock
        0x08002466:    b510        ..      PUSH     {r4,lr}
        0x08002468:    f000f802    ....    BL       SetSysClockTo72 ; 0x8002470
        0x0800246c:    bd10        ..      POP      {r4,pc}
        0x0800246e:    0000        ..      MOVS     r0,r0
    i.SetSysClockTo72
    SetSysClockTo72
        0x08002470:    b50c        ..      PUSH     {r2,r3,lr}
        0x08002472:    2000        .       MOVS     r0,#0
        0x08002474:    9001        ..      STR      r0,[sp,#4]
        0x08002476:    9000        ..      STR      r0,[sp,#0]
        0x08002478:    4833        3H      LDR      r0,[pc,#204] ; [0x8002548] = 0x40021000
        0x0800247a:    6800        .h      LDR      r0,[r0,#0]
        0x0800247c:    f4403080    @..0    ORR      r0,r0,#0x10000
        0x08002480:    4931        1I      LDR      r1,[pc,#196] ; [0x8002548] = 0x40021000
        0x08002482:    6008        .`      STR      r0,[r1,#0]
        0x08002484:    bf00        ..      NOP      
        0x08002486:    4830        0H      LDR      r0,[pc,#192] ; [0x8002548] = 0x40021000
        0x08002488:    6800        .h      LDR      r0,[r0,#0]
        0x0800248a:    f4003000    ...0    AND      r0,r0,#0x20000
        0x0800248e:    9000        ..      STR      r0,[sp,#0]
        0x08002490:    9801        ..      LDR      r0,[sp,#4]
        0x08002492:    1c40        @.      ADDS     r0,r0,#1
        0x08002494:    9001        ..      STR      r0,[sp,#4]
        0x08002496:    9800        ..      LDR      r0,[sp,#0]
        0x08002498:    b918        ..      CBNZ     r0,0x80024a2 ; SetSysClockTo72 + 50
        0x0800249a:    9801        ..      LDR      r0,[sp,#4]
        0x0800249c:    f5b06fa0    ...o    CMP      r0,#0x500
        0x080024a0:    d1f1        ..      BNE      0x8002486 ; SetSysClockTo72 + 22
        0x080024a2:    4829        )H      LDR      r0,[pc,#164] ; [0x8002548] = 0x40021000
        0x080024a4:    6800        .h      LDR      r0,[r0,#0]
        0x080024a6:    f4003000    ...0    AND      r0,r0,#0x20000
        0x080024aa:    b110        ..      CBZ      r0,0x80024b2 ; SetSysClockTo72 + 66
        0x080024ac:    2001        .       MOVS     r0,#1
        0x080024ae:    9000        ..      STR      r0,[sp,#0]
        0x080024b0:    e001        ..      B        0x80024b6 ; SetSysClockTo72 + 70
        0x080024b2:    2000        .       MOVS     r0,#0
        0x080024b4:    9000        ..      STR      r0,[sp,#0]
        0x080024b6:    9800        ..      LDR      r0,[sp,#0]
        0x080024b8:    2801        .(      CMP      r0,#1
        0x080024ba:    d143        C.      BNE      0x8002544 ; SetSysClockTo72 + 212
        0x080024bc:    4823        #H      LDR      r0,[pc,#140] ; [0x800254c] = 0x40022000
        0x080024be:    6800        .h      LDR      r0,[r0,#0]
        0x080024c0:    f0400010    @...    ORR      r0,r0,#0x10
        0x080024c4:    4921        !I      LDR      r1,[pc,#132] ; [0x800254c] = 0x40022000
        0x080024c6:    6008        .`      STR      r0,[r1,#0]
        0x080024c8:    4608        .F      MOV      r0,r1
        0x080024ca:    6800        .h      LDR      r0,[r0,#0]
        0x080024cc:    f0200003     ...    BIC      r0,r0,#3
        0x080024d0:    6008        .`      STR      r0,[r1,#0]
        0x080024d2:    4608        .F      MOV      r0,r1
        0x080024d4:    6800        .h      LDR      r0,[r0,#0]
        0x080024d6:    f0400002    @...    ORR      r0,r0,#2
        0x080024da:    6008        .`      STR      r0,[r1,#0]
        0x080024dc:    481a        .H      LDR      r0,[pc,#104] ; [0x8002548] = 0x40021000
        0x080024de:    6840        @h      LDR      r0,[r0,#4]
        0x080024e0:    4919        .I      LDR      r1,[pc,#100] ; [0x8002548] = 0x40021000
        0x080024e2:    6048        H`      STR      r0,[r1,#4]
        0x080024e4:    4608        .F      MOV      r0,r1
        0x080024e6:    6840        @h      LDR      r0,[r0,#4]
        0x080024e8:    6048        H`      STR      r0,[r1,#4]
        0x080024ea:    4608        .F      MOV      r0,r1
        0x080024ec:    6840        @h      LDR      r0,[r0,#4]
        0x080024ee:    f4406080    @..`    ORR      r0,r0,#0x400
        0x080024f2:    6048        H`      STR      r0,[r1,#4]
        0x080024f4:    4608        .F      MOV      r0,r1
        0x080024f6:    6840        @h      LDR      r0,[r0,#4]
        0x080024f8:    f420107c     .|.    BIC      r0,r0,#0x3f0000
        0x080024fc:    6048        H`      STR      r0,[r1,#4]
        0x080024fe:    4608        .F      MOV      r0,r1
        0x08002500:    6840        @h      LDR      r0,[r0,#4]
        0x08002502:    f44010e8    @...    ORR      r0,r0,#0x1d0000
        0x08002506:    6048        H`      STR      r0,[r1,#4]
        0x08002508:    4608        .F      MOV      r0,r1
        0x0800250a:    6800        .h      LDR      r0,[r0,#0]
        0x0800250c:    f0407080    @..p    ORR      r0,r0,#0x1000000
        0x08002510:    6008        .`      STR      r0,[r1,#0]
        0x08002512:    bf00        ..      NOP      
        0x08002514:    480c        .H      LDR      r0,[pc,#48] ; [0x8002548] = 0x40021000
        0x08002516:    6800        .h      LDR      r0,[r0,#0]
        0x08002518:    f0007000    ...p    AND      r0,r0,#0x2000000
        0x0800251c:    2800        .(      CMP      r0,#0
        0x0800251e:    d0f9        ..      BEQ      0x8002514 ; SetSysClockTo72 + 164
        0x08002520:    4809        .H      LDR      r0,[pc,#36] ; [0x8002548] = 0x40021000
        0x08002522:    6840        @h      LDR      r0,[r0,#4]
        0x08002524:    f0200003     ...    BIC      r0,r0,#3
        0x08002528:    4907        .I      LDR      r1,[pc,#28] ; [0x8002548] = 0x40021000
        0x0800252a:    6048        H`      STR      r0,[r1,#4]
        0x0800252c:    4608        .F      MOV      r0,r1
        0x0800252e:    6840        @h      LDR      r0,[r0,#4]
        0x08002530:    f0400002    @...    ORR      r0,r0,#2
        0x08002534:    6048        H`      STR      r0,[r1,#4]
        0x08002536:    bf00        ..      NOP      
        0x08002538:    4803        .H      LDR      r0,[pc,#12] ; [0x8002548] = 0x40021000
        0x0800253a:    6840        @h      LDR      r0,[r0,#4]
        0x0800253c:    f000000c    ....    AND      r0,r0,#0xc
        0x08002540:    2808        .(      CMP      r0,#8
        0x08002542:    d1f9        ..      BNE      0x8002538 ; SetSysClockTo72 + 200
        0x08002544:    bd0c        ..      POP      {r2,r3,pc}
    $d
        0x08002546:    0000        ..      DCW    0
        0x08002548:    40021000    ...@    DCD    1073876992
        0x0800254c:    40022000    . .@    DCD    1073881088
    $t
    i.SysTick_CLKSourceConfig
    SysTick_CLKSourceConfig
        0x08002550:    2804        .(      CMP      r0,#4
        0x08002552:    d108        ..      BNE      0x8002566 ; SysTick_CLKSourceConfig + 22
        0x08002554:    f04f21e0    O..!    MOV      r1,#0xe000e000
        0x08002558:    6909        .i      LDR      r1,[r1,#0x10]
        0x0800255a:    f0410104    A...    ORR      r1,r1,#4
        0x0800255e:    f04f22e0    O.."    MOV      r2,#0xe000e000
        0x08002562:    6111        .a      STR      r1,[r2,#0x10]
        0x08002564:    e007        ..      B        0x8002576 ; SysTick_CLKSourceConfig + 38
        0x08002566:    f04f21e0    O..!    MOV      r1,#0xe000e000
        0x0800256a:    6909        .i      LDR      r1,[r1,#0x10]
        0x0800256c:    f0210104    !...    BIC      r1,r1,#4
        0x08002570:    f04f22e0    O.."    MOV      r2,#0xe000e000
        0x08002574:    6111        .a      STR      r1,[r2,#0x10]
        0x08002576:    4770        pG      BX       lr
    i.SysTick_Handler
    SysTick_Handler
        0x08002578:    4770        pG      BX       lr
        0x0800257a:    0000        ..      MOVS     r0,r0
    i.SystemInit
    SystemInit
        0x0800257c:    b510        ..      PUSH     {r4,lr}
        0x0800257e:    4813        .H      LDR      r0,[pc,#76] ; [0x80025cc] = 0x40021000
        0x08002580:    6800        .h      LDR      r0,[r0,#0]
        0x08002582:    f0400001    @...    ORR      r0,r0,#1
        0x08002586:    4911        .I      LDR      r1,[pc,#68] ; [0x80025cc] = 0x40021000
        0x08002588:    6008        .`      STR      r0,[r1,#0]
        0x0800258a:    4608        .F      MOV      r0,r1
        0x0800258c:    6840        @h      LDR      r0,[r0,#4]
        0x0800258e:    4910        .I      LDR      r1,[pc,#64] ; [0x80025d0] = 0xf8ff0000
        0x08002590:    4008        .@      ANDS     r0,r0,r1
        0x08002592:    490e        .I      LDR      r1,[pc,#56] ; [0x80025cc] = 0x40021000
        0x08002594:    6048        H`      STR      r0,[r1,#4]
        0x08002596:    4608        .F      MOV      r0,r1
        0x08002598:    6800        .h      LDR      r0,[r0,#0]
        0x0800259a:    490e        .I      LDR      r1,[pc,#56] ; [0x80025d4] = 0xfef6ffff
        0x0800259c:    4008        .@      ANDS     r0,r0,r1
        0x0800259e:    490b        .I      LDR      r1,[pc,#44] ; [0x80025cc] = 0x40021000
        0x080025a0:    6008        .`      STR      r0,[r1,#0]
        0x080025a2:    4608        .F      MOV      r0,r1
        0x080025a4:    6800        .h      LDR      r0,[r0,#0]
        0x080025a6:    f4202080     ..     BIC      r0,r0,#0x40000
        0x080025aa:    6008        .`      STR      r0,[r1,#0]
        0x080025ac:    4608        .F      MOV      r0,r1
        0x080025ae:    6840        @h      LDR      r0,[r0,#4]
        0x080025b0:    f42000fe     ...    BIC      r0,r0,#0x7f0000
        0x080025b4:    6048        H`      STR      r0,[r1,#4]
        0x080025b6:    f44f001f    O...    MOV      r0,#0x9f0000
        0x080025ba:    6088        .`      STR      r0,[r1,#8]
        0x080025bc:    f7ffff53    ..S.    BL       SetSysClock ; 0x8002466
        0x080025c0:    f04f6000    O..`    MOV      r0,#0x8000000
        0x080025c4:    4904        .I      LDR      r1,[pc,#16] ; [0x80025d8] = 0xe000ed08
        0x080025c6:    6008        .`      STR      r0,[r1,#0]
        0x080025c8:    bd10        ..      POP      {r4,pc}
    $d
        0x080025ca:    0000        ..      DCW    0
        0x080025cc:    40021000    ...@    DCD    1073876992
        0x080025d0:    f8ff0000    ....    DCD    4177461248
        0x080025d4:    fef6ffff    ....    DCD    4277600255
        0x080025d8:    e000ed08    ....    DCD    3758157064
    $t
    i.TIM3_IRQHandler
    TIM3_IRQHandler
        0x080025dc:    b510        ..      PUSH     {r4,lr}
        0x080025de:    2101        .!      MOVS     r1,#1
        0x080025e0:    4808        .H      LDR      r0,[pc,#32] ; [0x8002604] = 0x40000400
        0x080025e2:    f000f8ff    ....    BL       TIM_GetITStatus ; 0x80027e4
        0x080025e6:    b158        X.      CBZ      r0,0x8002600 ; TIM3_IRQHandler + 36
        0x080025e8:    2101        .!      MOVS     r1,#1
        0x080025ea:    4806        .H      LDR      r0,[pc,#24] ; [0x8002604] = 0x40000400
        0x080025ec:    f000f8e8    ....    BL       TIM_ClearITPendingBit ; 0x80027c0
        0x080025f0:    4805        .H      LDR      r0,[pc,#20] ; [0x8002608] = 0x42230194
        0x080025f2:    6800        .h      LDR      r0,[r0,#0]
        0x080025f4:    b908        ..      CBNZ     r0,0x80025fa ; TIM3_IRQHandler + 30
        0x080025f6:    2001        .       MOVS     r0,#1
        0x080025f8:    e000        ..      B        0x80025fc ; TIM3_IRQHandler + 32
        0x080025fa:    2000        .       MOVS     r0,#0
        0x080025fc:    4902        .I      LDR      r1,[pc,#8] ; [0x8002608] = 0x42230194
        0x080025fe:    6008        .`      STR      r0,[r1,#0]
        0x08002600:    bd10        ..      POP      {r4,pc}
    $d
        0x08002602:    0000        ..      DCW    0
        0x08002604:    40000400    ...@    DCD    1073742848
        0x08002608:    42230194    ..#B    DCD    1109590420
    $t
    i.TIM5_IRQHandler
    TIM5_IRQHandler
        0x0800260c:    b510        ..      PUSH     {r4,lr}
        0x0800260e:    482c        ,H      LDR      r0,[pc,#176] ; [0x80026c0] = 0x20000030
        0x08002610:    7800        .x      LDRB     r0,[r0,#0]
        0x08002612:    f0000080    ....    AND      r0,r0,#0x80
        0x08002616:    2800        .(      CMP      r0,#0
        0x08002618:    d14c        L.      BNE      0x80026b4 ; TIM5_IRQHandler + 168
        0x0800261a:    2101        .!      MOVS     r1,#1
        0x0800261c:    4829        )H      LDR      r0,[pc,#164] ; [0x80026c4] = 0x40000c00
        0x0800261e:    f000f8e1    ....    BL       TIM_GetITStatus ; 0x80027e4
        0x08002622:    b1d0        ..      CBZ      r0,0x800265a ; TIM5_IRQHandler + 78
        0x08002624:    4826        &H      LDR      r0,[pc,#152] ; [0x80026c0] = 0x20000030
        0x08002626:    7800        .x      LDRB     r0,[r0,#0]
        0x08002628:    f0000040    ..@.    AND      r0,r0,#0x40
        0x0800262c:    b1a8        ..      CBZ      r0,0x800265a ; TIM5_IRQHandler + 78
        0x0800262e:    4824        $H      LDR      r0,[pc,#144] ; [0x80026c0] = 0x20000030
        0x08002630:    7800        .x      LDRB     r0,[r0,#0]
        0x08002632:    f000003f    ..?.    AND      r0,r0,#0x3f
        0x08002636:    283f        ?(      CMP      r0,#0x3f
        0x08002638:    d10a        ..      BNE      0x8002650 ; TIM5_IRQHandler + 68
        0x0800263a:    4821        !H      LDR      r0,[pc,#132] ; [0x80026c0] = 0x20000030
        0x0800263c:    7800        .x      LDRB     r0,[r0,#0]
        0x0800263e:    f0400080    @...    ORR      r0,r0,#0x80
        0x08002642:    491f        .I      LDR      r1,[pc,#124] ; [0x80026c0] = 0x20000030
        0x08002644:    7008        .p      STRB     r0,[r1,#0]
        0x08002646:    f64f70ff    O..p    MOV      r0,#0xffff
        0x0800264a:    491f        .I      LDR      r1,[pc,#124] ; [0x80026c8] = 0x20000032
        0x0800264c:    8008        ..      STRH     r0,[r1,#0]
        0x0800264e:    e004        ..      B        0x800265a ; TIM5_IRQHandler + 78
        0x08002650:    481b        .H      LDR      r0,[pc,#108] ; [0x80026c0] = 0x20000030
        0x08002652:    7800        .x      LDRB     r0,[r0,#0]
        0x08002654:    1c40        @.      ADDS     r0,r0,#1
        0x08002656:    491a        .I      LDR      r1,[pc,#104] ; [0x80026c0] = 0x20000030
        0x08002658:    7008        .p      STRB     r0,[r1,#0]
        0x0800265a:    2102        .!      MOVS     r1,#2
        0x0800265c:    4819        .H      LDR      r0,[pc,#100] ; [0x80026c4] = 0x40000c00
        0x0800265e:    f000f8c1    ....    BL       TIM_GetITStatus ; 0x80027e4
        0x08002662:    b338        8.      CBZ      r0,0x80026b4 ; TIM5_IRQHandler + 168
        0x08002664:    4816        .H      LDR      r0,[pc,#88] ; [0x80026c0] = 0x20000030
        0x08002666:    7800        .x      LDRB     r0,[r0,#0]
        0x08002668:    f0000040    ..@.    AND      r0,r0,#0x40
        0x0800266c:    b178        x.      CBZ      r0,0x800268e ; TIM5_IRQHandler + 130
        0x0800266e:    4814        .H      LDR      r0,[pc,#80] ; [0x80026c0] = 0x20000030
        0x08002670:    7800        .x      LDRB     r0,[r0,#0]
        0x08002672:    f0400080    @...    ORR      r0,r0,#0x80
        0x08002676:    4912        .I      LDR      r1,[pc,#72] ; [0x80026c0] = 0x20000030
        0x08002678:    7008        .p      STRB     r0,[r1,#0]
        0x0800267a:    4812        .H      LDR      r0,[pc,#72] ; [0x80026c4] = 0x40000c00
        0x0800267c:    f000f8af    ....    BL       TIM_GetCapture1 ; 0x80027de
        0x08002680:    4911        .I      LDR      r1,[pc,#68] ; [0x80026c8] = 0x20000032
        0x08002682:    8008        ..      STRH     r0,[r1,#0]
        0x08002684:    2100        .!      MOVS     r1,#0
        0x08002686:    480f        .H      LDR      r0,[pc,#60] ; [0x80026c4] = 0x40000c00
        0x08002688:    f000f8c6    ....    BL       TIM_OC1PolarityConfig ; 0x8002818
        0x0800268c:    e012        ..      B        0x80026b4 ; TIM5_IRQHandler + 168
        0x0800268e:    2000        .       MOVS     r0,#0
        0x08002690:    490b        .I      LDR      r1,[pc,#44] ; [0x80026c0] = 0x20000030
        0x08002692:    7008        .p      STRB     r0,[r1,#0]
        0x08002694:    490c        .I      LDR      r1,[pc,#48] ; [0x80026c8] = 0x20000032
        0x08002696:    8008        ..      STRH     r0,[r1,#0]
        0x08002698:    2100        .!      MOVS     r1,#0
        0x0800269a:    480a        .H      LDR      r0,[pc,#40] ; [0x80026c4] = 0x40000c00
        0x0800269c:    f000f8c5    ....    BL       TIM_SetCounter ; 0x800282a
        0x080026a0:    4807        .H      LDR      r0,[pc,#28] ; [0x80026c0] = 0x20000030
        0x080026a2:    7800        .x      LDRB     r0,[r0,#0]
        0x080026a4:    f0400040    @.@.    ORR      r0,r0,#0x40
        0x080026a8:    4905        .I      LDR      r1,[pc,#20] ; [0x80026c0] = 0x20000030
        0x080026aa:    7008        .p      STRB     r0,[r1,#0]
        0x080026ac:    2102        .!      MOVS     r1,#2
        0x080026ae:    4805        .H      LDR      r0,[pc,#20] ; [0x80026c4] = 0x40000c00
        0x080026b0:    f000f8b2    ....    BL       TIM_OC1PolarityConfig ; 0x8002818
        0x080026b4:    2103        .!      MOVS     r1,#3
        0x080026b6:    4803        .H      LDR      r0,[pc,#12] ; [0x80026c4] = 0x40000c00
        0x080026b8:    f000f882    ....    BL       TIM_ClearITPendingBit ; 0x80027c0
        0x080026bc:    bd10        ..      POP      {r4,pc}
    $d
        0x080026be:    0000        ..      DCW    0
        0x080026c0:    20000030    0..     DCD    536870960
        0x080026c4:    40000c00    ...@    DCD    1073744896
        0x080026c8:    20000032    2..     DCD    536870962
    $t
    i.TIM6_IRQHandler
    TIM6_IRQHandler
        0x080026cc:    b510        ..      PUSH     {r4,lr}
        0x080026ce:    2101        .!      MOVS     r1,#1
        0x080026d0:    4806        .H      LDR      r0,[pc,#24] ; [0x80026ec] = 0x40001000
        0x080026d2:    f000f887    ....    BL       TIM_GetITStatus ; 0x80027e4
        0x080026d6:    b120         .      CBZ      r0,0x80026e2 ; TIM6_IRQHandler + 22
        0x080026d8:    4805        .H      LDR      r0,[pc,#20] ; [0x80026f0] = 0x2000003c
        0x080026da:    7801        .x      LDRB     r1,[r0,#0]
        0x080026dc:    a005        ..      ADR      r0,{pc}+0x18 ; 0x80026f4
        0x080026de:    f7fdfe01    ....    BL       __2printf ; 0x80002e4
        0x080026e2:    2101        .!      MOVS     r1,#1
        0x080026e4:    4801        .H      LDR      r0,[pc,#4] ; [0x80026ec] = 0x40001000
        0x080026e6:    f000f86b    ..k.    BL       TIM_ClearITPendingBit ; 0x80027c0
        0x080026ea:    bd10        ..      POP      {r4,pc}
    $d
        0x080026ec:    40001000    ...@    DCD    1073745920
        0x080026f0:    2000003c    <..     DCD    536870972
        0x080026f4:    70657473    step    DCD    1885697139
        0x080026f8:    6664253a    :%df    DCD    1717839162
        0x080026fc:    0a0d7370    ps..    DCD    168653680
        0x08002700:    00000000    ....    DCD    0
    $t
    i.TIM7_IRQHandler
    TIM7_IRQHandler
        0x08002704:    b510        ..      PUSH     {r4,lr}
        0x08002706:    a00d        ..      ADR      r0,{pc}+0x36 ; 0x800273c
        0x08002708:    f7fdfdec    ....    BL       __2printf ; 0x80002e4
        0x0800270c:    2101        .!      MOVS     r1,#1
        0x0800270e:    480f        .H      LDR      r0,[pc,#60] ; [0x800274c] = 0x40001400
        0x08002710:    f000f868    ..h.    BL       TIM_GetITStatus ; 0x80027e4
        0x08002714:    b180        ..      CBZ      r0,0x8002738 ; TIM7_IRQHandler + 52
        0x08002716:    a00e        ..      ADR      r0,{pc}+0x3a ; 0x8002750
        0x08002718:    f7fdfde4    ....    BL       __2printf ; 0x80002e4
        0x0800271c:    480f        .H      LDR      r0,[pc,#60] ; [0x800275c] = 0x20000034
        0x0800271e:    8800        ..      LDRH     r0,[r0,#0]
        0x08002720:    f4404000    @..@    ORR      r0,r0,#0x8000
        0x08002724:    490d        .I      LDR      r1,[pc,#52] ; [0x800275c] = 0x20000034
        0x08002726:    8008        ..      STRH     r0,[r1,#0]
        0x08002728:    2100        .!      MOVS     r1,#0
        0x0800272a:    4808        .H      LDR      r0,[pc,#32] ; [0x800274c] = 0x40001400
        0x0800272c:    f000f84b    ..K.    BL       TIM_Cmd ; 0x80027c6
        0x08002730:    2101        .!      MOVS     r1,#1
        0x08002732:    4806        .H      LDR      r0,[pc,#24] ; [0x800274c] = 0x40001400
        0x08002734:    f000f844    ..D.    BL       TIM_ClearITPendingBit ; 0x80027c0
        0x08002738:    bd10        ..      POP      {r4,pc}
    $d
        0x0800273a:    0000        ..      DCW    0
        0x0800273c:    20776f6e    now     DCD    544698222
        0x08002740:    54206e69    in T    DCD    1411411561
        0x08002744:    0d374d49    IM7.    DCD    221728073
        0x08002748:    0000000a    ....    DCD    10
        0x0800274c:    40001400    ...@    DCD    1073746944
        0x08002750:    20746573    set     DCD    544499059
        0x08002754:    67616c66    flag    DCD    1734437990
        0x08002758:    00000a0d    ....    DCD    2573
        0x0800275c:    20000034    4..     DCD    536870964
    $t
    i.TIM7_Int_Init
    TIM7_Int_Init
        0x08002760:    b57f        ..      PUSH     {r0-r6,lr}
        0x08002762:    4605        .F      MOV      r5,r0
        0x08002764:    460c        .F      MOV      r4,r1
        0x08002766:    2101        .!      MOVS     r1,#1
        0x08002768:    2020                MOVS     r0,#0x20
        0x0800276a:    f7fffd07    ....    BL       RCC_APB1PeriphClockCmd ; 0x800217c
        0x0800276e:    f8ad5004    ...P    STRH     r5,[sp,#4]
        0x08002772:    f8ad4000    ...@    STRH     r4,[sp,#0]
        0x08002776:    2000        .       MOVS     r0,#0
        0x08002778:    f8ad0006    ....    STRH     r0,[sp,#6]
        0x0800277c:    f8ad0002    ....    STRH     r0,[sp,#2]
        0x08002780:    4669        iF      MOV      r1,sp
        0x08002782:    480e        .H      LDR      r0,[pc,#56] ; [0x80027bc] = 0x40001400
        0x08002784:    f000f854    ..T.    BL       TIM_TimeBaseInit ; 0x8002830
        0x08002788:    2201        ."      MOVS     r2,#1
        0x0800278a:    4611        .F      MOV      r1,r2
        0x0800278c:    480b        .H      LDR      r0,[pc,#44] ; [0x80027bc] = 0x40001400
        0x0800278e:    f000f83a    ..:.    BL       TIM_ITConfig ; 0x8002806
        0x08002792:    2101        .!      MOVS     r1,#1
        0x08002794:    4809        .H      LDR      r0,[pc,#36] ; [0x80027bc] = 0x40001400
        0x08002796:    f000f816    ....    BL       TIM_Cmd ; 0x80027c6
        0x0800279a:    2037        7       MOVS     r0,#0x37
        0x0800279c:    f88d000c    ....    STRB     r0,[sp,#0xc]
        0x080027a0:    2000        .       MOVS     r0,#0
        0x080027a2:    f88d000d    ....    STRB     r0,[sp,#0xd]
        0x080027a6:    2002        .       MOVS     r0,#2
        0x080027a8:    f88d000e    ....    STRB     r0,[sp,#0xe]
        0x080027ac:    2001        .       MOVS     r0,#1
        0x080027ae:    f88d000f    ....    STRB     r0,[sp,#0xf]
        0x080027b2:    a803        ..      ADD      r0,sp,#0xc
        0x080027b4:    f7fffc9e    ....    BL       NVIC_Init ; 0x80020f4
        0x080027b8:    bd7f        ..      POP      {r0-r6,pc}
    $d
        0x080027ba:    0000        ..      DCW    0
        0x080027bc:    40001400    ...@    DCD    1073746944
    $t
    i.TIM_ClearITPendingBit
    TIM_ClearITPendingBit
        0x080027c0:    43ca        .C      MVNS     r2,r1
        0x080027c2:    8202        ..      STRH     r2,[r0,#0x10]
        0x080027c4:    4770        pG      BX       lr
    i.TIM_Cmd
    TIM_Cmd
        0x080027c6:    b121        !.      CBZ      r1,0x80027d2 ; TIM_Cmd + 12
        0x080027c8:    8802        ..      LDRH     r2,[r0,#0]
        0x080027ca:    f0420201    B...    ORR      r2,r2,#1
        0x080027ce:    8002        ..      STRH     r2,[r0,#0]
        0x080027d0:    e004        ..      B        0x80027dc ; TIM_Cmd + 22
        0x080027d2:    8802        ..      LDRH     r2,[r0,#0]
        0x080027d4:    f64f73fe    O..s    MOV      r3,#0xfffe
        0x080027d8:    401a        .@      ANDS     r2,r2,r3
        0x080027da:    8002        ..      STRH     r2,[r0,#0]
        0x080027dc:    4770        pG      BX       lr
    i.TIM_GetCapture1
    TIM_GetCapture1
        0x080027de:    4601        .F      MOV      r1,r0
        0x080027e0:    8e88        ..      LDRH     r0,[r1,#0x34]
        0x080027e2:    4770        pG      BX       lr
    i.TIM_GetITStatus
    TIM_GetITStatus
        0x080027e4:    b530        0.      PUSH     {r4,r5,lr}
        0x080027e6:    4602        .F      MOV      r2,r0
        0x080027e8:    2000        .       MOVS     r0,#0
        0x080027ea:    2300        .#      MOVS     r3,#0
        0x080027ec:    2400        .$      MOVS     r4,#0
        0x080027ee:    8a15        ..      LDRH     r5,[r2,#0x10]
        0x080027f0:    ea050301    ....    AND      r3,r5,r1
        0x080027f4:    8995        ..      LDRH     r5,[r2,#0xc]
        0x080027f6:    ea050401    ....    AND      r4,r5,r1
        0x080027fa:    b113        ..      CBZ      r3,0x8002802 ; TIM_GetITStatus + 30
        0x080027fc:    b10c        ..      CBZ      r4,0x8002802 ; TIM_GetITStatus + 30
        0x080027fe:    2001        .       MOVS     r0,#1
        0x08002800:    e000        ..      B        0x8002804 ; TIM_GetITStatus + 32
        0x08002802:    2000        .       MOVS     r0,#0
        0x08002804:    bd30        0.      POP      {r4,r5,pc}
    i.TIM_ITConfig
    TIM_ITConfig
        0x08002806:    b11a        ..      CBZ      r2,0x8002810 ; TIM_ITConfig + 10
        0x08002808:    8983        ..      LDRH     r3,[r0,#0xc]
        0x0800280a:    430b        .C      ORRS     r3,r3,r1
        0x0800280c:    8183        ..      STRH     r3,[r0,#0xc]
        0x0800280e:    e002        ..      B        0x8002816 ; TIM_ITConfig + 16
        0x08002810:    8983        ..      LDRH     r3,[r0,#0xc]
        0x08002812:    438b        .C      BICS     r3,r3,r1
        0x08002814:    8183        ..      STRH     r3,[r0,#0xc]
        0x08002816:    4770        pG      BX       lr
    i.TIM_OC1PolarityConfig
    TIM_OC1PolarityConfig
        0x08002818:    460a        .F      MOV      r2,r1
        0x0800281a:    2100        .!      MOVS     r1,#0
        0x0800281c:    8c01        ..      LDRH     r1,[r0,#0x20]
        0x0800281e:    f64f73fd    O..s    MOV      r3,#0xfffd
        0x08002822:    4019        .@      ANDS     r1,r1,r3
        0x08002824:    4311        .C      ORRS     r1,r1,r2
        0x08002826:    8401        ..      STRH     r1,[r0,#0x20]
        0x08002828:    4770        pG      BX       lr
    i.TIM_SetCounter
    TIM_SetCounter
        0x0800282a:    8481        ..      STRH     r1,[r0,#0x24]
        0x0800282c:    4770        pG      BX       lr
        0x0800282e:    0000        ..      MOVS     r0,r0
    i.TIM_TimeBaseInit
    TIM_TimeBaseInit
        0x08002830:    2200        ."      MOVS     r2,#0
        0x08002832:    8802        ..      LDRH     r2,[r0,#0]
        0x08002834:    4b1d        .K      LDR      r3,[pc,#116] ; [0x80028ac] = 0x40012c00
        0x08002836:    4298        .B      CMP      r0,r3
        0x08002838:    d00e        ..      BEQ      0x8002858 ; TIM_TimeBaseInit + 40
        0x0800283a:    4b1d        .K      LDR      r3,[pc,#116] ; [0x80028b0] = 0x40013400
        0x0800283c:    4298        .B      CMP      r0,r3
        0x0800283e:    d00b        ..      BEQ      0x8002858 ; TIM_TimeBaseInit + 40
        0x08002840:    f1b04f80    ...O    CMP      r0,#0x40000000
        0x08002844:    d008        ..      BEQ      0x8002858 ; TIM_TimeBaseInit + 40
        0x08002846:    4b1b        .K      LDR      r3,[pc,#108] ; [0x80028b4] = 0x40000400
        0x08002848:    4298        .B      CMP      r0,r3
        0x0800284a:    d005        ..      BEQ      0x8002858 ; TIM_TimeBaseInit + 40
        0x0800284c:    4b1a        .K      LDR      r3,[pc,#104] ; [0x80028b8] = 0x40000800
        0x0800284e:    4298        .B      CMP      r0,r3
        0x08002850:    d002        ..      BEQ      0x8002858 ; TIM_TimeBaseInit + 40
        0x08002852:    4b1a        .K      LDR      r3,[pc,#104] ; [0x80028bc] = 0x40000c00
        0x08002854:    4298        .B      CMP      r0,r3
        0x08002856:    d104        ..      BNE      0x8002862 ; TIM_TimeBaseInit + 50
        0x08002858:    f64f738f    O..s    MOV      r3,#0xff8f
        0x0800285c:    401a        .@      ANDS     r2,r2,r3
        0x0800285e:    884b        K.      LDRH     r3,[r1,#2]
        0x08002860:    431a        .C      ORRS     r2,r2,r3
        0x08002862:    4b17        .K      LDR      r3,[pc,#92] ; [0x80028c0] = 0x40001000
        0x08002864:    4298        .B      CMP      r0,r3
        0x08002866:    d007        ..      BEQ      0x8002878 ; TIM_TimeBaseInit + 72
        0x08002868:    4b16        .K      LDR      r3,[pc,#88] ; [0x80028c4] = 0x40001400
        0x0800286a:    4298        .B      CMP      r0,r3
        0x0800286c:    d004        ..      BEQ      0x8002878 ; TIM_TimeBaseInit + 72
        0x0800286e:    f64f43ff    O..C    MOV      r3,#0xfcff
        0x08002872:    401a        .@      ANDS     r2,r2,r3
        0x08002874:    88cb        ..      LDRH     r3,[r1,#6]
        0x08002876:    431a        .C      ORRS     r2,r2,r3
        0x08002878:    8002        ..      STRH     r2,[r0,#0]
        0x0800287a:    888b        ..      LDRH     r3,[r1,#4]
        0x0800287c:    8583        ..      STRH     r3,[r0,#0x2c]
        0x0800287e:    880b        ..      LDRH     r3,[r1,#0]
        0x08002880:    8503        ..      STRH     r3,[r0,#0x28]
        0x08002882:    4b0a        .K      LDR      r3,[pc,#40] ; [0x80028ac] = 0x40012c00
        0x08002884:    4298        .B      CMP      r0,r3
        0x08002886:    d00b        ..      BEQ      0x80028a0 ; TIM_TimeBaseInit + 112
        0x08002888:    4b09        .K      LDR      r3,[pc,#36] ; [0x80028b0] = 0x40013400
        0x0800288a:    4298        .B      CMP      r0,r3
        0x0800288c:    d008        ..      BEQ      0x80028a0 ; TIM_TimeBaseInit + 112
        0x0800288e:    4b0e        .K      LDR      r3,[pc,#56] ; [0x80028c8] = 0x40014000
        0x08002890:    4298        .B      CMP      r0,r3
        0x08002892:    d005        ..      BEQ      0x80028a0 ; TIM_TimeBaseInit + 112
        0x08002894:    4b0d        .K      LDR      r3,[pc,#52] ; [0x80028cc] = 0x40014400
        0x08002896:    4298        .B      CMP      r0,r3
        0x08002898:    d002        ..      BEQ      0x80028a0 ; TIM_TimeBaseInit + 112
        0x0800289a:    4b0d        .K      LDR      r3,[pc,#52] ; [0x80028d0] = 0x40014800
        0x0800289c:    4298        .B      CMP      r0,r3
        0x0800289e:    d101        ..      BNE      0x80028a4 ; TIM_TimeBaseInit + 116
        0x080028a0:    7a0b        .z      LDRB     r3,[r1,#8]
        0x080028a2:    8603        ..      STRH     r3,[r0,#0x30]
        0x080028a4:    2301        .#      MOVS     r3,#1
        0x080028a6:    8283        ..      STRH     r3,[r0,#0x14]
        0x080028a8:    4770        pG      BX       lr
    $d
        0x080028aa:    0000        ..      DCW    0
        0x080028ac:    40012c00    .,.@    DCD    1073818624
        0x080028b0:    40013400    .4.@    DCD    1073820672
        0x080028b4:    40000400    ...@    DCD    1073742848
        0x080028b8:    40000800    ...@    DCD    1073743872
        0x080028bc:    40000c00    ...@    DCD    1073744896
        0x080028c0:    40001000    ...@    DCD    1073745920
        0x080028c4:    40001400    ...@    DCD    1073746944
        0x080028c8:    40014000    .@.@    DCD    1073823744
        0x080028cc:    40014400    .D.@    DCD    1073824768
        0x080028d0:    40014800    .H.@    DCD    1073825792
    $t
    i.USART1_IRQHandler
    USART1_IRQHandler
        0x080028d4:    b510        ..      PUSH     {r4,lr}
        0x080028d6:    f2405125    @.%Q    MOV      r1,#0x525
        0x080028da:    481d        .H      LDR      r0,[pc,#116] ; [0x8002950] = 0x40013800
        0x080028dc:    f000f901    ....    BL       USART_GetITStatus ; 0x8002ae2
        0x080028e0:    b310        ..      CBZ      r0,0x8002928 ; USART1_IRQHandler + 84
        0x080028e2:    481b        .H      LDR      r0,[pc,#108] ; [0x8002950] = 0x40013800
        0x080028e4:    f000f9b8    ....    BL       USART_ReceiveData ; 0x8002c58
        0x080028e8:    b2c4        ..      UXTB     r4,r0
        0x080028ea:    481a        .H      LDR      r0,[pc,#104] ; [0x8002954] = 0x2000001c
        0x080028ec:    8800        ..      LDRH     r0,[r0,#0]
        0x080028ee:    f4004000    ...@    AND      r0,r0,#0x8000
        0x080028f2:    b9c8        ..      CBNZ     r0,0x8002928 ; USART1_IRQHandler + 84
        0x080028f4:    4817        .H      LDR      r0,[pc,#92] ; [0x8002954] = 0x2000001c
        0x080028f6:    8800        ..      LDRH     r0,[r0,#0]
        0x080028f8:    f4004080    ...@    AND      r0,r0,#0x4000
        0x080028fc:    b160        `.      CBZ      r0,0x8002918 ; USART1_IRQHandler + 68
        0x080028fe:    2c0a        .,      CMP      r4,#0xa
        0x08002900:    d003        ..      BEQ      0x800290a ; USART1_IRQHandler + 54
        0x08002902:    2000        .       MOVS     r0,#0
        0x08002904:    4913        .I      LDR      r1,[pc,#76] ; [0x8002954] = 0x2000001c
        0x08002906:    8008        ..      STRH     r0,[r1,#0]
        0x08002908:    e020         .      B        0x800294c ; USART1_IRQHandler + 120
        0x0800290a:    4812        .H      LDR      r0,[pc,#72] ; [0x8002954] = 0x2000001c
        0x0800290c:    8800        ..      LDRH     r0,[r0,#0]
        0x0800290e:    f4404000    @..@    ORR      r0,r0,#0x8000
        0x08002912:    4910        .I      LDR      r1,[pc,#64] ; [0x8002954] = 0x2000001c
        0x08002914:    8008        ..      STRH     r0,[r1,#0]
        0x08002916:    e019        ..      B        0x800294c ; USART1_IRQHandler + 120
        0x08002918:    2c0d        .,      CMP      r4,#0xd
        0x0800291a:    d106        ..      BNE      0x800292a ; USART1_IRQHandler + 86
        0x0800291c:    480d        .H      LDR      r0,[pc,#52] ; [0x8002954] = 0x2000001c
        0x0800291e:    8800        ..      LDRH     r0,[r0,#0]
        0x08002920:    f4404080    @..@    ORR      r0,r0,#0x4000
        0x08002924:    490b        .I      LDR      r1,[pc,#44] ; [0x8002954] = 0x2000001c
        0x08002926:    8008        ..      STRH     r0,[r1,#0]
        0x08002928:    e010        ..      B        0x800294c ; USART1_IRQHandler + 120
        0x0800292a:    480a        .H      LDR      r0,[pc,#40] ; [0x8002954] = 0x2000001c
        0x0800292c:    8800        ..      LDRH     r0,[r0,#0]
        0x0800292e:    f3c0000d    ....    UBFX     r0,r0,#0,#14
        0x08002932:    4909        .I      LDR      r1,[pc,#36] ; [0x8002958] = 0x20000058
        0x08002934:    540c        .T      STRB     r4,[r1,r0]
        0x08002936:    4807        .H      LDR      r0,[pc,#28] ; [0x8002954] = 0x2000001c
        0x08002938:    8800        ..      LDRH     r0,[r0,#0]
        0x0800293a:    1c40        @.      ADDS     r0,r0,#1
        0x0800293c:    4905        .I      LDR      r1,[pc,#20] ; [0x8002954] = 0x2000001c
        0x0800293e:    8008        ..      STRH     r0,[r1,#0]
        0x08002940:    4608        .F      MOV      r0,r1
        0x08002942:    8800        ..      LDRH     r0,[r0,#0]
        0x08002944:    28c7        .(      CMP      r0,#0xc7
        0x08002946:    dd01        ..      BLE      0x800294c ; USART1_IRQHandler + 120
        0x08002948:    2000        .       MOVS     r0,#0
        0x0800294a:    8008        ..      STRH     r0,[r1,#0]
        0x0800294c:    bd10        ..      POP      {r4,pc}
    $d
        0x0800294e:    0000        ..      DCW    0
        0x08002950:    40013800    .8.@    DCD    1073821696
        0x08002954:    2000001c    ...     DCD    536870940
        0x08002958:    20000058    X..     DCD    536871000
    $t
    i.USART3_IRQHandler
    USART3_IRQHandler
        0x0800295c:    b510        ..      PUSH     {r4,lr}
        0x0800295e:    f2405125    @.%Q    MOV      r1,#0x525
        0x08002962:    481e        .H      LDR      r0,[pc,#120] ; [0x80029dc] = 0x40004800
        0x08002964:    f000f8bd    ....    BL       USART_GetITStatus ; 0x8002ae2
        0x08002968:    2800        .(      CMP      r0,#0
        0x0800296a:    d035        5.      BEQ      0x80029d8 ; USART3_IRQHandler + 124
        0x0800296c:    2001        .       MOVS     r0,#1
        0x0800296e:    491c        .I      LDR      r1,[pc,#112] ; [0x80029e0] = 0x20000038
        0x08002970:    6008        .`      STR      r0,[r1,#0]
        0x08002972:    481a        .H      LDR      r0,[pc,#104] ; [0x80029dc] = 0x40004800
        0x08002974:    f000f970    ..p.    BL       USART_ReceiveData ; 0x8002c58
        0x08002978:    b2c4        ..      UXTB     r4,r0
        0x0800297a:    4621        !F      MOV      r1,r4
        0x0800297c:    4819        .H      LDR      r0,[pc,#100] ; [0x80029e4] = 0x40013800
        0x0800297e:    f000f970    ..p.    BL       USART_SendData ; 0x8002c62
        0x08002982:    4819        .H      LDR      r0,[pc,#100] ; [0x80029e8] = 0x20000034
        0x08002984:    8800        ..      LDRH     r0,[r0,#0]
        0x08002986:    f4204040     .@@    BIC      r0,r0,#0xc000
        0x0800298a:    f2417170    A.pq    MOV      r1,#0x1770
        0x0800298e:    4288        .B      CMP      r0,r1
        0x08002990:    da14        ..      BGE      0x80029bc ; USART3_IRQHandler + 96
        0x08002992:    2100        .!      MOVS     r1,#0
        0x08002994:    4815        .H      LDR      r0,[pc,#84] ; [0x80029ec] = 0x40001400
        0x08002996:    f7ffff48    ..H.    BL       TIM_SetCounter ; 0x800282a
        0x0800299a:    4813        .H      LDR      r0,[pc,#76] ; [0x80029e8] = 0x20000034
        0x0800299c:    8800        ..      LDRH     r0,[r0,#0]
        0x0800299e:    f4004000    ...@    AND      r0,r0,#0x8000
        0x080029a2:    b918        ..      CBNZ     r0,0x80029ac ; USART3_IRQHandler + 80
        0x080029a4:    2101        .!      MOVS     r1,#1
        0x080029a6:    4811        .H      LDR      r0,[pc,#68] ; [0x80029ec] = 0x40001400
        0x080029a8:    f7ffff0d    ....    BL       TIM_Cmd ; 0x80027c6
        0x080029ac:    490e        .I      LDR      r1,[pc,#56] ; [0x80029e8] = 0x20000034
        0x080029ae:    8808        ..      LDRH     r0,[r1,#0]
        0x080029b0:    1c41        A.      ADDS     r1,r0,#1
        0x080029b2:    4a0d        .J      LDR      r2,[pc,#52] ; [0x80029e8] = 0x20000034
        0x080029b4:    8011        ..      STRH     r1,[r2,#0]
        0x080029b6:    490e        .I      LDR      r1,[pc,#56] ; [0x80029f0] = 0x200003e0
        0x080029b8:    540c        .T      STRB     r4,[r1,r0]
        0x080029ba:    e00d        ..      B        0x80029d8 ; USART3_IRQHandler + 124
        0x080029bc:    480a        .H      LDR      r0,[pc,#40] ; [0x80029e8] = 0x20000034
        0x080029be:    8800        ..      LDRH     r0,[r0,#0]
        0x080029c0:    f4204140     .@A    BIC      r1,r0,#0xc000
        0x080029c4:    4a0a        .J      LDR      r2,[pc,#40] ; [0x80029f0] = 0x200003e0
        0x080029c6:    a00b        ..      ADR      r0,{pc}+0x2e ; 0x80029f4
        0x080029c8:    f7fdfc8c    ....    BL       __2printf ; 0x80002e4
        0x080029cc:    4806        .H      LDR      r0,[pc,#24] ; [0x80029e8] = 0x20000034
        0x080029ce:    8800        ..      LDRH     r0,[r0,#0]
        0x080029d0:    f4404080    @..@    ORR      r0,r0,#0x4000
        0x080029d4:    4904        .I      LDR      r1,[pc,#16] ; [0x80029e8] = 0x20000034
        0x080029d6:    8008        ..      STRH     r0,[r1,#0]
        0x080029d8:    bd10        ..      POP      {r4,pc}
    $d
        0x080029da:    0000        ..      DCW    0
        0x080029dc:    40004800    .H.@    DCD    1073760256
        0x080029e0:    20000038    8..     DCD    536870968
        0x080029e4:    40013800    .8.@    DCD    1073821696
        0x080029e8:    20000034    4..     DCD    536870964
        0x080029ec:    40001400    ...@    DCD    1073746944
        0x080029f0:    200003e0    ...     DCD    536871904
        0x080029f4:    72617375    usar    DCD    1918989173
        0x080029f8:    62203374    t3 b    DCD    1646277492
        0x080029fc:    65666675    uffe    DCD    1701209717
        0x08002a00:    766f2072    r ov    DCD    1986994290
        0x08002a04:    6c667265    erfl    DCD    1818653285
        0x08002a08:    253a776f    ow:%    DCD    624588655
        0x08002a0c:    73252c64    d,%s    DCD    1931816036
        0x08002a10:    00000a0d    ....    DCD    2573
    $t
    i.USART_Cmd
    USART_Cmd
        0x08002a14:    b121        !.      CBZ      r1,0x8002a20 ; USART_Cmd + 12
        0x08002a16:    8982        ..      LDRH     r2,[r0,#0xc]
        0x08002a18:    f4425200    B..R    ORR      r2,r2,#0x2000
        0x08002a1c:    8182        ..      STRH     r2,[r0,#0xc]
        0x08002a1e:    e004        ..      B        0x8002a2a ; USART_Cmd + 22
        0x08002a20:    8982        ..      LDRH     r2,[r0,#0xc]
        0x08002a22:    f64d73ff    M..s    MOV      r3,#0xdfff
        0x08002a26:    401a        .@      ANDS     r2,r2,r3
        0x08002a28:    8182        ..      STRH     r2,[r0,#0xc]
        0x08002a2a:    4770        pG      BX       lr
    i.USART_DeInit
    USART_DeInit
        0x08002a2c:    b510        ..      PUSH     {r4,lr}
        0x08002a2e:    4604        .F      MOV      r4,r0
        0x08002a30:    4820         H      LDR      r0,[pc,#128] ; [0x8002ab4] = 0x40013800
        0x08002a32:    4284        .B      CMP      r4,r0
        0x08002a34:    d109        ..      BNE      0x8002a4a ; USART_DeInit + 30
        0x08002a36:    2101        .!      MOVS     r1,#1
        0x08002a38:    0388        ..      LSLS     r0,r1,#14
        0x08002a3a:    f7fffbcf    ....    BL       RCC_APB2PeriphResetCmd ; 0x80021dc
        0x08002a3e:    2100        .!      MOVS     r1,#0
        0x08002a40:    f44f4080    O..@    MOV      r0,#0x4000
        0x08002a44:    f7fffbca    ....    BL       RCC_APB2PeriphResetCmd ; 0x80021dc
        0x08002a48:    e032        2.      B        0x8002ab0 ; USART_DeInit + 132
        0x08002a4a:    481b        .H      LDR      r0,[pc,#108] ; [0x8002ab8] = 0x40004400
        0x08002a4c:    4284        .B      CMP      r4,r0
        0x08002a4e:    d109        ..      BNE      0x8002a64 ; USART_DeInit + 56
        0x08002a50:    2101        .!      MOVS     r1,#1
        0x08002a52:    0448        H.      LSLS     r0,r1,#17
        0x08002a54:    f7fffba2    ....    BL       RCC_APB1PeriphResetCmd ; 0x800219c
        0x08002a58:    2100        .!      MOVS     r1,#0
        0x08002a5a:    f44f3000    O..0    MOV      r0,#0x20000
        0x08002a5e:    f7fffb9d    ....    BL       RCC_APB1PeriphResetCmd ; 0x800219c
        0x08002a62:    e025        %.      B        0x8002ab0 ; USART_DeInit + 132
        0x08002a64:    4815        .H      LDR      r0,[pc,#84] ; [0x8002abc] = 0x40004800
        0x08002a66:    4284        .B      CMP      r4,r0
        0x08002a68:    d109        ..      BNE      0x8002a7e ; USART_DeInit + 82
        0x08002a6a:    2101        .!      MOVS     r1,#1
        0x08002a6c:    0488        ..      LSLS     r0,r1,#18
        0x08002a6e:    f7fffb95    ....    BL       RCC_APB1PeriphResetCmd ; 0x800219c
        0x08002a72:    2100        .!      MOVS     r1,#0
        0x08002a74:    f44f2080    O..     MOV      r0,#0x40000
        0x08002a78:    f7fffb90    ....    BL       RCC_APB1PeriphResetCmd ; 0x800219c
        0x08002a7c:    e018        ..      B        0x8002ab0 ; USART_DeInit + 132
        0x08002a7e:    4810        .H      LDR      r0,[pc,#64] ; [0x8002ac0] = 0x40004c00
        0x08002a80:    4284        .B      CMP      r4,r0
        0x08002a82:    d109        ..      BNE      0x8002a98 ; USART_DeInit + 108
        0x08002a84:    2101        .!      MOVS     r1,#1
        0x08002a86:    04c8        ..      LSLS     r0,r1,#19
        0x08002a88:    f7fffb88    ....    BL       RCC_APB1PeriphResetCmd ; 0x800219c
        0x08002a8c:    2100        .!      MOVS     r1,#0
        0x08002a8e:    f44f2000    O..     MOV      r0,#0x80000
        0x08002a92:    f7fffb83    ....    BL       RCC_APB1PeriphResetCmd ; 0x800219c
        0x08002a96:    e00b        ..      B        0x8002ab0 ; USART_DeInit + 132
        0x08002a98:    480a        .H      LDR      r0,[pc,#40] ; [0x8002ac4] = 0x40005000
        0x08002a9a:    4284        .B      CMP      r4,r0
        0x08002a9c:    d108        ..      BNE      0x8002ab0 ; USART_DeInit + 132
        0x08002a9e:    2101        .!      MOVS     r1,#1
        0x08002aa0:    0508        ..      LSLS     r0,r1,#20
        0x08002aa2:    f7fffb7b    ..{.    BL       RCC_APB1PeriphResetCmd ; 0x800219c
        0x08002aa6:    2100        .!      MOVS     r1,#0
        0x08002aa8:    f44f1080    O...    MOV      r0,#0x100000
        0x08002aac:    f7fffb76    ..v.    BL       RCC_APB1PeriphResetCmd ; 0x800219c
        0x08002ab0:    bd10        ..      POP      {r4,pc}
    $d
        0x08002ab2:    0000        ..      DCW    0
        0x08002ab4:    40013800    .8.@    DCD    1073821696
        0x08002ab8:    40004400    .D.@    DCD    1073759232
        0x08002abc:    40004800    .H.@    DCD    1073760256
        0x08002ac0:    40004c00    .L.@    DCD    1073761280
        0x08002ac4:    40005000    .P.@    DCD    1073762304
    $t
    i.USART_GetFlagStatus
    USART_GetFlagStatus
        0x08002ac8:    4602        .F      MOV      r2,r0
        0x08002aca:    2000        .       MOVS     r0,#0
        0x08002acc:    f5b17f00    ....    CMP      r1,#0x200
        0x08002ad0:    d100        ..      BNE      0x8002ad4 ; USART_GetFlagStatus + 12
        0x08002ad2:    bf00        ..      NOP      
        0x08002ad4:    8813        ..      LDRH     r3,[r2,#0]
        0x08002ad6:    400b        .@      ANDS     r3,r3,r1
        0x08002ad8:    b10b        ..      CBZ      r3,0x8002ade ; USART_GetFlagStatus + 22
        0x08002ada:    2001        .       MOVS     r0,#1
        0x08002adc:    e000        ..      B        0x8002ae0 ; USART_GetFlagStatus + 24
        0x08002ade:    2000        .       MOVS     r0,#0
        0x08002ae0:    4770        pG      BX       lr
    i.USART_GetITStatus
    USART_GetITStatus
        0x08002ae2:    b570        p.      PUSH     {r4-r6,lr}
        0x08002ae4:    4602        .F      MOV      r2,r0
        0x08002ae6:    2400        .$      MOVS     r4,#0
        0x08002ae8:    2300        .#      MOVS     r3,#0
        0x08002aea:    2500        .%      MOVS     r5,#0
        0x08002aec:    2000        .       MOVS     r0,#0
        0x08002aee:    f640166a    @.j.    MOV      r6,#0x96a
        0x08002af2:    42b1        .B      CMP      r1,r6
        0x08002af4:    d100        ..      BNE      0x8002af8 ; USART_GetITStatus + 22
        0x08002af6:    bf00        ..      NOP      
        0x08002af8:    f3c11542    ..B.    UBFX     r5,r1,#5,#3
        0x08002afc:    f001031f    ....    AND      r3,r1,#0x1f
        0x08002b00:    2601        .&      MOVS     r6,#1
        0x08002b02:    fa06f303    ....    LSL      r3,r6,r3
        0x08002b06:    2d01        .-      CMP      r5,#1
        0x08002b08:    d102        ..      BNE      0x8002b10 ; USART_GetITStatus + 46
        0x08002b0a:    8996        ..      LDRH     r6,[r2,#0xc]
        0x08002b0c:    4033        3@      ANDS     r3,r3,r6
        0x08002b0e:    e006        ..      B        0x8002b1e ; USART_GetITStatus + 60
        0x08002b10:    2d02        .-      CMP      r5,#2
        0x08002b12:    d102        ..      BNE      0x8002b1a ; USART_GetITStatus + 56
        0x08002b14:    8a16        ..      LDRH     r6,[r2,#0x10]
        0x08002b16:    4033        3@      ANDS     r3,r3,r6
        0x08002b18:    e001        ..      B        0x8002b1e ; USART_GetITStatus + 60
        0x08002b1a:    8a96        ..      LDRH     r6,[r2,#0x14]
        0x08002b1c:    4033        3@      ANDS     r3,r3,r6
        0x08002b1e:    120c        ..      ASRS     r4,r1,#8
        0x08002b20:    2601        .&      MOVS     r6,#1
        0x08002b22:    fa06f404    ....    LSL      r4,r6,r4
        0x08002b26:    8816        ..      LDRH     r6,[r2,#0]
        0x08002b28:    4034        4@      ANDS     r4,r4,r6
        0x08002b2a:    b113        ..      CBZ      r3,0x8002b32 ; USART_GetITStatus + 80
        0x08002b2c:    b10c        ..      CBZ      r4,0x8002b32 ; USART_GetITStatus + 80
        0x08002b2e:    2001        .       MOVS     r0,#1
        0x08002b30:    e000        ..      B        0x8002b34 ; USART_GetITStatus + 82
        0x08002b32:    2000        .       MOVS     r0,#0
        0x08002b34:    bd70        p.      POP      {r4-r6,pc}
    i.USART_ITConfig
    USART_ITConfig
        0x08002b36:    b5f0        ..      PUSH     {r4-r7,lr}
        0x08002b38:    4603        .F      MOV      r3,r0
        0x08002b3a:    2400        .$      MOVS     r4,#0
        0x08002b3c:    2600        .&      MOVS     r6,#0
        0x08002b3e:    2500        .%      MOVS     r5,#0
        0x08002b40:    2000        .       MOVS     r0,#0
        0x08002b42:    f640176a    @.j.    MOV      r7,#0x96a
        0x08002b46:    42b9        .B      CMP      r1,r7
        0x08002b48:    d100        ..      BNE      0x8002b4c ; USART_ITConfig + 22
        0x08002b4a:    bf00        ..      NOP      
        0x08002b4c:    4618        .F      MOV      r0,r3
        0x08002b4e:    f3c11442    ..B.    UBFX     r4,r1,#5,#3
        0x08002b52:    f001061f    ....    AND      r6,r1,#0x1f
        0x08002b56:    2701        .'      MOVS     r7,#1
        0x08002b58:    fa07f506    ....    LSL      r5,r7,r6
        0x08002b5c:    2c01        .,      CMP      r4,#1
        0x08002b5e:    d101        ..      BNE      0x8002b64 ; USART_ITConfig + 46
        0x08002b60:    300c        .0      ADDS     r0,r0,#0xc
        0x08002b62:    e004        ..      B        0x8002b6e ; USART_ITConfig + 56
        0x08002b64:    2c02        .,      CMP      r4,#2
        0x08002b66:    d101        ..      BNE      0x8002b6c ; USART_ITConfig + 54
        0x08002b68:    3010        .0      ADDS     r0,r0,#0x10
        0x08002b6a:    e000        ..      B        0x8002b6e ; USART_ITConfig + 56
        0x08002b6c:    3014        .0      ADDS     r0,r0,#0x14
        0x08002b6e:    b11a        ..      CBZ      r2,0x8002b78 ; USART_ITConfig + 66
        0x08002b70:    6807        .h      LDR      r7,[r0,#0]
        0x08002b72:    432f        /C      ORRS     r7,r7,r5
        0x08002b74:    6007        .`      STR      r7,[r0,#0]
        0x08002b76:    e002        ..      B        0x8002b7e ; USART_ITConfig + 72
        0x08002b78:    6807        .h      LDR      r7,[r0,#0]
        0x08002b7a:    43af        .C      BICS     r7,r7,r5
        0x08002b7c:    6007        .`      STR      r7,[r0,#0]
        0x08002b7e:    bdf0        ..      POP      {r4-r7,pc}
    i.USART_Init
    USART_Init
        0x08002b80:    e92d47f0    -..G    PUSH     {r4-r10,lr}
        0x08002b84:    b086        ..      SUB      sp,sp,#0x18
        0x08002b86:    4605        .F      MOV      r5,r0
        0x08002b88:    460e        .F      MOV      r6,r1
        0x08002b8a:    2400        .$      MOVS     r4,#0
        0x08002b8c:    46a2        .F      MOV      r10,r4
        0x08002b8e:    bf00        ..      NOP      
        0x08002b90:    46a1        .F      MOV      r9,r4
        0x08002b92:    2700        .'      MOVS     r7,#0
        0x08002b94:    89b0        ..      LDRH     r0,[r6,#0xc]
        0x08002b96:    b100        ..      CBZ      r0,0x8002b9a ; USART_Init + 26
        0x08002b98:    bf00        ..      NOP      
        0x08002b9a:    462f        /F      MOV      r7,r5
        0x08002b9c:    8a2c        ,.      LDRH     r4,[r5,#0x10]
        0x08002b9e:    f64c70ff    L..p    MOV      r0,#0xcfff
        0x08002ba2:    4004        .@      ANDS     r4,r4,r0
        0x08002ba4:    88f0        ..      LDRH     r0,[r6,#6]
        0x08002ba6:    4304        .C      ORRS     r4,r4,r0
        0x08002ba8:    822c        ,.      STRH     r4,[r5,#0x10]
        0x08002baa:    89ac        ..      LDRH     r4,[r5,#0xc]
        0x08002bac:    f64e10f3    N...    MOV      r0,#0xe9f3
        0x08002bb0:    4004        .@      ANDS     r4,r4,r0
        0x08002bb2:    88b0        ..      LDRH     r0,[r6,#4]
        0x08002bb4:    8931        1.      LDRH     r1,[r6,#8]
        0x08002bb6:    4308        .C      ORRS     r0,r0,r1
        0x08002bb8:    8971        q.      LDRH     r1,[r6,#0xa]
        0x08002bba:    4308        .C      ORRS     r0,r0,r1
        0x08002bbc:    4304        .C      ORRS     r4,r4,r0
        0x08002bbe:    81ac        ..      STRH     r4,[r5,#0xc]
        0x08002bc0:    8aac        ..      LDRH     r4,[r5,#0x14]
        0x08002bc2:    f64f40ff    O..@    MOV      r0,#0xfcff
        0x08002bc6:    4004        .@      ANDS     r4,r4,r0
        0x08002bc8:    89b0        ..      LDRH     r0,[r6,#0xc]
        0x08002bca:    4304        .C      ORRS     r4,r4,r0
        0x08002bcc:    82ac        ..      STRH     r4,[r5,#0x14]
        0x08002bce:    a801        ..      ADD      r0,sp,#4
        0x08002bd0:    f7fffb14    ....    BL       RCC_GetClocksFreq ; 0x80021fc
        0x08002bd4:    481f        .H      LDR      r0,[pc,#124] ; [0x8002c54] = 0x40013800
        0x08002bd6:    4287        .B      CMP      r7,r0
        0x08002bd8:    d102        ..      BNE      0x8002be0 ; USART_Init + 96
        0x08002bda:    f8dda010    ....    LDR      r10,[sp,#0x10]
        0x08002bde:    e001        ..      B        0x8002be4 ; USART_Init + 100
        0x08002be0:    f8dda00c    ....    LDR      r10,[sp,#0xc]
        0x08002be4:    89a8        ..      LDRH     r0,[r5,#0xc]
        0x08002be6:    f4004000    ...@    AND      r0,r0,#0x8000
        0x08002bea:    b140        @.      CBZ      r0,0x8002bfe ; USART_Init + 126
        0x08002bec:    eb0a00ca    ....    ADD      r0,r10,r10,LSL #3
        0x08002bf0:    eb00100a    ....    ADD      r0,r0,r10,LSL #4
        0x08002bf4:    6831        1h      LDR      r1,[r6,#0]
        0x08002bf6:    0049        I.      LSLS     r1,r1,#1
        0x08002bf8:    fbb0f8f1    ....    UDIV     r8,r0,r1
        0x08002bfc:    e007        ..      B        0x8002c0e ; USART_Init + 142
        0x08002bfe:    eb0a00ca    ....    ADD      r0,r10,r10,LSL #3
        0x08002c02:    eb00100a    ....    ADD      r0,r0,r10,LSL #4
        0x08002c06:    6831        1h      LDR      r1,[r6,#0]
        0x08002c08:    0089        ..      LSLS     r1,r1,#2
        0x08002c0a:    fbb0f8f1    ....    UDIV     r8,r0,r1
        0x08002c0e:    2064        d       MOVS     r0,#0x64
        0x08002c10:    fbb8f0f0    ....    UDIV     r0,r8,r0
        0x08002c14:    0104        ..      LSLS     r4,r0,#4
        0x08002c16:    0920         .      LSRS     r0,r4,#4
        0x08002c18:    2164        d!      MOVS     r1,#0x64
        0x08002c1a:    fb018910    ....    MLS      r9,r1,r0,r8
        0x08002c1e:    89a8        ..      LDRH     r0,[r5,#0xc]
        0x08002c20:    f4004000    ...@    AND      r0,r0,#0x8000
        0x08002c24:    b140        @.      CBZ      r0,0x8002c38 ; USART_Init + 184
        0x08002c26:    2032        2       MOVS     r0,#0x32
        0x08002c28:    eb0000c9    ....    ADD      r0,r0,r9,LSL #3
        0x08002c2c:    fbb0f0f1    ....    UDIV     r0,r0,r1
        0x08002c30:    f0000007    ....    AND      r0,r0,#7
        0x08002c34:    4304        .C      ORRS     r4,r4,r0
        0x08002c36:    e008        ..      B        0x8002c4a ; USART_Init + 202
        0x08002c38:    2032        2       MOVS     r0,#0x32
        0x08002c3a:    eb001009    ....    ADD      r0,r0,r9,LSL #4
        0x08002c3e:    2164        d!      MOVS     r1,#0x64
        0x08002c40:    fbb0f0f1    ....    UDIV     r0,r0,r1
        0x08002c44:    f000000f    ....    AND      r0,r0,#0xf
        0x08002c48:    4304        .C      ORRS     r4,r4,r0
        0x08002c4a:    812c        ,.      STRH     r4,[r5,#8]
        0x08002c4c:    b006        ..      ADD      sp,sp,#0x18
        0x08002c4e:    e8bd87f0    ....    POP      {r4-r10,pc}
    $d
        0x08002c52:    0000        ..      DCW    0
        0x08002c54:    40013800    .8.@    DCD    1073821696
    $t
    i.USART_ReceiveData
    USART_ReceiveData
        0x08002c58:    4601        .F      MOV      r1,r0
        0x08002c5a:    8888        ..      LDRH     r0,[r1,#4]
        0x08002c5c:    f3c00008    ....    UBFX     r0,r0,#0,#9
        0x08002c60:    4770        pG      BX       lr
    i.USART_SendData
    USART_SendData
        0x08002c62:    f3c10208    ....    UBFX     r2,r1,#0,#9
        0x08002c66:    8082        ..      STRH     r2,[r0,#4]
        0x08002c68:    4770        pG      BX       lr
    i.UsageFault_Handler
    UsageFault_Handler
        0x08002c6a:    bf00        ..      NOP      
        0x08002c6c:    e7fe        ..      B        0x8002c6c ; UsageFault_Handler + 2
    i.__ARM_fpclassify
    __ARM_fpclassify
        0x08002c6e:    0049        I.      LSLS     r1,r1,#1
        0x08002c70:    ea5020c1    P..     ORRS     r0,r0,r1,LSL #11
        0x08002c74:    bf18        ..      IT       NE
        0x08002c76:    2004        .       MOVNE    r0,#4
        0x08002c78:    0d4a        J.      LSRS     r2,r1,#21
        0x08002c7a:    bf18        ..      IT       NE
        0x08002c7c:    f0400001    @...    ORRNE    r0,r0,#1
        0x08002c80:    f24072ff    @..r    MOV      r2,#0x7ff
        0x08002c84:    ebb25f51    ..Q_    CMP      r2,r1,LSR #21
        0x08002c88:    bf08        ..      IT       EQ
        0x08002c8a:    f0400002    @...    ORREQ    r0,r0,#2
        0x08002c8e:    2801        .(      CMP      r0,#1
        0x08002c90:    bf08        ..      IT       EQ
        0x08002c92:    2005        .       MOVEQ    r0,#5
        0x08002c94:    4770        pG      BX       lr
    i._is_digit
    _is_digit
        0x08002c96:    3830        08      SUBS     r0,r0,#0x30
        0x08002c98:    280a        .(      CMP      r0,#0xa
        0x08002c9a:    d201        ..      BCS      0x8002ca0 ; _is_digit + 10
        0x08002c9c:    2001        .       MOVS     r0,#1
        0x08002c9e:    4770        pG      BX       lr
        0x08002ca0:    2000        .       MOVS     r0,#0
        0x08002ca2:    4770        pG      BX       lr
    i._sys_exit
    _sys_exit
        0x08002ca4:    bf00        ..      NOP      
        0x08002ca6:    4770        pG      BX       lr
    i.atk_8266_check_cmd
    atk_8266_check_cmd
        0x08002ca8:    b570        p.      PUSH     {r4-r6,lr}
        0x08002caa:    4606        .F      MOV      r6,r0
        0x08002cac:    460c        .F      MOV      r4,r1
        0x08002cae:    2500        .%      MOVS     r5,#0
        0x08002cb0:    2000        .       MOVS     r0,#0
        0x08002cb2:    4906        .I      LDR      r1,[pc,#24] ; [0x8002ccc] = 0x20000034
        0x08002cb4:    8809        ..      LDRH     r1,[r1,#0]
        0x08002cb6:    f3c1010d    ....    UBFX     r1,r1,#0,#14
        0x08002cba:    4a05        .J      LDR      r2,[pc,#20] ; [0x8002cd0] = 0x200003e0
        0x08002cbc:    5450        PT      STRB     r0,[r2,r1]
        0x08002cbe:    4621        !F      MOV      r1,r4
        0x08002cc0:    4610        .F      MOV      r0,r2
        0x08002cc2:    f7fdfc5b    ..[.    BL       strstr ; 0x800057c
        0x08002cc6:    4605        .F      MOV      r5,r0
        0x08002cc8:    4628        (F      MOV      r0,r5
        0x08002cca:    bd70        p.      POP      {r4-r6,pc}
    $d
        0x08002ccc:    20000034    4..     DCD    536870964
        0x08002cd0:    200003e0    ...     DCD    536871904
    $t
    i.atk_8266_send_cmd
    atk_8266_send_cmd
        0x08002cd4:    e92d41f0    -..A    PUSH     {r4-r8,lr}
        0x08002cd8:    4605        .F      MOV      r5,r0
        0x08002cda:    460e        .F      MOV      r6,r1
        0x08002cdc:    4614        .F      MOV      r4,r2
        0x08002cde:    4866        fH      LDR      r0,[pc,#408] ; [0x8002e78] = 0x20000054
        0x08002ce0:    6800        .h      LDR      r0,[r0,#0]
        0x08002ce2:    1c40        @.      ADDS     r0,r0,#1
        0x08002ce4:    4964        dI      LDR      r1,[pc,#400] ; [0x8002e78] = 0x20000054
        0x08002ce6:    6008        .`      STR      r0,[r1,#0]
        0x08002ce8:    2700        .'      MOVS     r7,#0
        0x08002cea:    2000        .       MOVS     r0,#0
        0x08002cec:    4963        cI      LDR      r1,[pc,#396] ; [0x8002e7c] = 0x20000034
        0x08002cee:    8008        ..      STRH     r0,[r1,#0]
        0x08002cf0:    4629        )F      MOV      r1,r5
        0x08002cf2:    a063        c.      ADR      r0,{pc}+0x18e ; 0x8002e80
        0x08002cf4:    f000fc9a    ....    BL       u3_printf ; 0x800362c
        0x08002cf8:    2e00        ..      CMP      r6,#0
        0x08002cfa:    d05f        _.      BEQ      0x8002dbc ; atk_8266_send_cmd + 232
        0x08002cfc:    2c00        .,      CMP      r4,#0
        0x08002cfe:    d0fc        ..      BEQ      0x8002cfa ; atk_8266_send_cmd + 38
        0x08002d00:    dd5d        ].      BLE      0x8002dbe ; atk_8266_send_cmd + 234
        0x08002d02:    e053        S.      B        0x8002dac ; atk_8266_send_cmd + 216
        0x08002d04:    200a        .       MOVS     r0,#0xa
        0x08002d06:    f000fa39    ..9.    BL       delay_ms ; 0x800317c
        0x08002d0a:    485c        \H      LDR      r0,[pc,#368] ; [0x8002e7c] = 0x20000034
        0x08002d0c:    8800        ..      LDRH     r0,[r0,#0]
        0x08002d0e:    f4004080    ...@    AND      r0,r0,#0x4000
        0x08002d12:    2800        .(      CMP      r0,#0
        0x08002d14:    d022        ".      BEQ      0x8002d5c ; atk_8266_send_cmd + 136
        0x08002d16:    4631        1F      MOV      r1,r6
        0x08002d18:    a05b        [.      ADR      r0,{pc}+0x170 ; 0x8002e88
        0x08002d1a:    f7ffffc5    ....    BL       atk_8266_check_cmd ; 0x8002ca8
        0x08002d1e:    b118        ..      CBZ      r0,0x8002d28 ; atk_8266_send_cmd + 84
        0x08002d20:    2000        .       MOVS     r0,#0
        0x08002d22:    4956        VI      LDR      r1,[pc,#344] ; [0x8002e7c] = 0x20000034
        0x08002d24:    8008        ..      STRH     r0,[r1,#0]
        0x08002d26:    e045        E.      B        0x8002db4 ; atk_8266_send_cmd + 224
        0x08002d28:    a15a        Z.      ADR      r1,{pc}+0x16c ; 0x8002e94
        0x08002d2a:    a057        W.      ADR      r0,{pc}+0x15e ; 0x8002e88
        0x08002d2c:    f7ffffbc    ....    BL       atk_8266_check_cmd ; 0x8002ca8
        0x08002d30:    b128        (.      CBZ      r0,0x8002d3e ; atk_8266_send_cmd + 106
        0x08002d32:    2000        .       MOVS     r0,#0
        0x08002d34:    4951        QI      LDR      r1,[pc,#324] ; [0x8002e7c] = 0x20000034
        0x08002d36:    8008        ..      STRH     r0,[r1,#0]
        0x08002d38:    2003        .       MOVS     r0,#3
        0x08002d3a:    e8bd81f0    ....    POP      {r4-r8,pc}
        0x08002d3e:    a157        W.      ADR      r1,{pc}+0x15e ; 0x8002e9c
        0x08002d40:    a051        Q.      ADR      r0,{pc}+0x148 ; 0x8002e88
        0x08002d42:    f7ffffb1    ....    BL       atk_8266_check_cmd ; 0x8002ca8
        0x08002d46:    b120         .      CBZ      r0,0x8002d52 ; atk_8266_send_cmd + 126
        0x08002d48:    2000        .       MOVS     r0,#0
        0x08002d4a:    494c        LI      LDR      r1,[pc,#304] ; [0x8002e7c] = 0x20000034
        0x08002d4c:    8008        ..      STRH     r0,[r1,#0]
        0x08002d4e:    2004        .       MOVS     r0,#4
        0x08002d50:    e7f3        ..      B        0x8002d3a ; atk_8266_send_cmd + 102
        0x08002d52:    2000        .       MOVS     r0,#0
        0x08002d54:    4949        II      LDR      r1,[pc,#292] ; [0x8002e7c] = 0x20000034
        0x08002d56:    8008        ..      STRH     r0,[r1,#0]
        0x08002d58:    2002        .       MOVS     r0,#2
        0x08002d5a:    e7ee        ..      B        0x8002d3a ; atk_8266_send_cmd + 102
        0x08002d5c:    4847        GH      LDR      r0,[pc,#284] ; [0x8002e7c] = 0x20000034
        0x08002d5e:    8800        ..      LDRH     r0,[r0,#0]
        0x08002d60:    f4004000    ...@    AND      r0,r0,#0x8000
        0x08002d64:    b310        ..      CBZ      r0,0x8002dac ; atk_8266_send_cmd + 216
        0x08002d66:    4845        EH      LDR      r0,[pc,#276] ; [0x8002e7c] = 0x20000034
        0x08002d68:    8800        ..      LDRH     r0,[r0,#0]
        0x08002d6a:    f4204000     ..@    BIC      r0,r0,#0x8000
        0x08002d6e:    4943        CI      LDR      r1,[pc,#268] ; [0x8002e7c] = 0x20000034
        0x08002d70:    8008        ..      STRH     r0,[r1,#0]
        0x08002d72:    4631        1F      MOV      r1,r6
        0x08002d74:    a044        D.      ADR      r0,{pc}+0x114 ; 0x8002e88
        0x08002d76:    f7ffff97    ....    BL       atk_8266_check_cmd ; 0x8002ca8
        0x08002d7a:    b118        ..      CBZ      r0,0x8002d84 ; atk_8266_send_cmd + 176
        0x08002d7c:    2000        .       MOVS     r0,#0
        0x08002d7e:    493f        ?I      LDR      r1,[pc,#252] ; [0x8002e7c] = 0x20000034
        0x08002d80:    8008        ..      STRH     r0,[r1,#0]
        0x08002d82:    e017        ..      B        0x8002db4 ; atk_8266_send_cmd + 224
        0x08002d84:    a143        C.      ADR      r1,{pc}+0x110 ; 0x8002e94
        0x08002d86:    a040        @.      ADR      r0,{pc}+0x102 ; 0x8002e88
        0x08002d88:    f7ffff8e    ....    BL       atk_8266_check_cmd ; 0x8002ca8
        0x08002d8c:    b120         .      CBZ      r0,0x8002d98 ; atk_8266_send_cmd + 196
        0x08002d8e:    2000        .       MOVS     r0,#0
        0x08002d90:    493a        :I      LDR      r1,[pc,#232] ; [0x8002e7c] = 0x20000034
        0x08002d92:    8008        ..      STRH     r0,[r1,#0]
        0x08002d94:    2003        .       MOVS     r0,#3
        0x08002d96:    e7d0        ..      B        0x8002d3a ; atk_8266_send_cmd + 102
        0x08002d98:    a140        @.      ADR      r1,{pc}+0x104 ; 0x8002e9c
        0x08002d9a:    a03b        ;.      ADR      r0,{pc}+0xee ; 0x8002e88
        0x08002d9c:    f7ffff84    ....    BL       atk_8266_check_cmd ; 0x8002ca8
        0x08002da0:    b120         .      CBZ      r0,0x8002dac ; atk_8266_send_cmd + 216
        0x08002da2:    2000        .       MOVS     r0,#0
        0x08002da4:    4935        5I      LDR      r1,[pc,#212] ; [0x8002e7c] = 0x20000034
        0x08002da6:    8008        ..      STRH     r0,[r1,#0]
        0x08002da8:    2004        .       MOVS     r0,#4
        0x08002daa:    e7c6        ..      B        0x8002d3a ; atk_8266_send_cmd + 102
        0x08002dac:    1e60        `.      SUBS     r0,r4,#1
        0x08002dae:    b200        ..      SXTH     r0,r0
        0x08002db0:    1e04        ..      SUBS     r4,r0,#0
        0x08002db2:    d1a7        ..      BNE      0x8002d04 ; atk_8266_send_cmd + 48
        0x08002db4:    bf00        ..      NOP      
        0x08002db6:    2c00        .,      CMP      r4,#0
        0x08002db8:    d158        X.      BNE      0x8002e6c ; atk_8266_send_cmd + 408
        0x08002dba:    2701        .'      MOVS     r7,#1
        0x08002dbc:    e056        V.      B        0x8002e6c ; atk_8266_send_cmd + 408
        0x08002dbe:    2c00        .,      CMP      r4,#0
        0x08002dc0:    da54        T.      BGE      0x8002e6c ; atk_8266_send_cmd + 408
        0x08002dc2:    e051        Q.      B        0x8002e68 ; atk_8266_send_cmd + 404
        0x08002dc4:    200a        .       MOVS     r0,#0xa
        0x08002dc6:    f000f9d9    ....    BL       delay_ms ; 0x800317c
        0x08002dca:    482c        ,H      LDR      r0,[pc,#176] ; [0x8002e7c] = 0x20000034
        0x08002dcc:    8800        ..      LDRH     r0,[r0,#0]
        0x08002dce:    f4004080    ...@    AND      r0,r0,#0x4000
        0x08002dd2:    b308        ..      CBZ      r0,0x8002e18 ; atk_8266_send_cmd + 324
        0x08002dd4:    4631        1F      MOV      r1,r6
        0x08002dd6:    a02c        ,.      ADR      r0,{pc}+0xb2 ; 0x8002e88
        0x08002dd8:    f7ffff66    ..f.    BL       atk_8266_check_cmd ; 0x8002ca8
        0x08002ddc:    b118        ..      CBZ      r0,0x8002de6 ; atk_8266_send_cmd + 274
        0x08002dde:    2000        .       MOVS     r0,#0
        0x08002de0:    4926        &I      LDR      r1,[pc,#152] ; [0x8002e7c] = 0x20000034
        0x08002de2:    8008        ..      STRH     r0,[r1,#0]
        0x08002de4:    e041        A.      B        0x8002e6a ; atk_8266_send_cmd + 406
        0x08002de6:    a12b        +.      ADR      r1,{pc}+0xae ; 0x8002e94
        0x08002de8:    a027        '.      ADR      r0,{pc}+0xa0 ; 0x8002e88
        0x08002dea:    f7ffff5d    ..].    BL       atk_8266_check_cmd ; 0x8002ca8
        0x08002dee:    b120         .      CBZ      r0,0x8002dfa ; atk_8266_send_cmd + 294
        0x08002df0:    2000        .       MOVS     r0,#0
        0x08002df2:    4922        "I      LDR      r1,[pc,#136] ; [0x8002e7c] = 0x20000034
        0x08002df4:    8008        ..      STRH     r0,[r1,#0]
        0x08002df6:    2003        .       MOVS     r0,#3
        0x08002df8:    e79f        ..      B        0x8002d3a ; atk_8266_send_cmd + 102
        0x08002dfa:    a128        (.      ADR      r1,{pc}+0xa2 ; 0x8002e9c
        0x08002dfc:    a022        ".      ADR      r0,{pc}+0x8c ; 0x8002e88
        0x08002dfe:    f7ffff53    ..S.    BL       atk_8266_check_cmd ; 0x8002ca8
        0x08002e02:    b120         .      CBZ      r0,0x8002e0e ; atk_8266_send_cmd + 314
        0x08002e04:    2000        .       MOVS     r0,#0
        0x08002e06:    491d        .I      LDR      r1,[pc,#116] ; [0x8002e7c] = 0x20000034
        0x08002e08:    8008        ..      STRH     r0,[r1,#0]
        0x08002e0a:    2004        .       MOVS     r0,#4
        0x08002e0c:    e795        ..      B        0x8002d3a ; atk_8266_send_cmd + 102
        0x08002e0e:    2000        .       MOVS     r0,#0
        0x08002e10:    491a        .I      LDR      r1,[pc,#104] ; [0x8002e7c] = 0x20000034
        0x08002e12:    8008        ..      STRH     r0,[r1,#0]
        0x08002e14:    2002        .       MOVS     r0,#2
        0x08002e16:    e790        ..      B        0x8002d3a ; atk_8266_send_cmd + 102
        0x08002e18:    4818        .H      LDR      r0,[pc,#96] ; [0x8002e7c] = 0x20000034
        0x08002e1a:    8800        ..      LDRH     r0,[r0,#0]
        0x08002e1c:    f4004000    ...@    AND      r0,r0,#0x8000
        0x08002e20:    b310        ..      CBZ      r0,0x8002e68 ; atk_8266_send_cmd + 404
        0x08002e22:    4816        .H      LDR      r0,[pc,#88] ; [0x8002e7c] = 0x20000034
        0x08002e24:    8800        ..      LDRH     r0,[r0,#0]
        0x08002e26:    f4204000     ..@    BIC      r0,r0,#0x8000
        0x08002e2a:    4914        .I      LDR      r1,[pc,#80] ; [0x8002e7c] = 0x20000034
        0x08002e2c:    8008        ..      STRH     r0,[r1,#0]
        0x08002e2e:    4631        1F      MOV      r1,r6
        0x08002e30:    a015        ..      ADR      r0,{pc}+0x58 ; 0x8002e88
        0x08002e32:    f7ffff39    ..9.    BL       atk_8266_check_cmd ; 0x8002ca8
        0x08002e36:    b118        ..      CBZ      r0,0x8002e40 ; atk_8266_send_cmd + 364
        0x08002e38:    2000        .       MOVS     r0,#0
        0x08002e3a:    4910        .I      LDR      r1,[pc,#64] ; [0x8002e7c] = 0x20000034
        0x08002e3c:    8008        ..      STRH     r0,[r1,#0]
        0x08002e3e:    e014        ..      B        0x8002e6a ; atk_8266_send_cmd + 406
        0x08002e40:    a114        ..      ADR      r1,{pc}+0x54 ; 0x8002e94
        0x08002e42:    a011        ..      ADR      r0,{pc}+0x46 ; 0x8002e88
        0x08002e44:    f7ffff30    ..0.    BL       atk_8266_check_cmd ; 0x8002ca8
        0x08002e48:    b120         .      CBZ      r0,0x8002e54 ; atk_8266_send_cmd + 384
        0x08002e4a:    2000        .       MOVS     r0,#0
        0x08002e4c:    490b        .I      LDR      r1,[pc,#44] ; [0x8002e7c] = 0x20000034
        0x08002e4e:    8008        ..      STRH     r0,[r1,#0]
        0x08002e50:    2003        .       MOVS     r0,#3
        0x08002e52:    e772        r.      B        0x8002d3a ; atk_8266_send_cmd + 102
        0x08002e54:    a111        ..      ADR      r1,{pc}+0x48 ; 0x8002e9c
        0x08002e56:    a00c        ..      ADR      r0,{pc}+0x32 ; 0x8002e88
        0x08002e58:    f7ffff26    ..&.    BL       atk_8266_check_cmd ; 0x8002ca8
        0x08002e5c:    b120         .      CBZ      r0,0x8002e68 ; atk_8266_send_cmd + 404
        0x08002e5e:    2000        .       MOVS     r0,#0
        0x08002e60:    4906        .I      LDR      r1,[pc,#24] ; [0x8002e7c] = 0x20000034
        0x08002e62:    8008        ..      STRH     r0,[r1,#0]
        0x08002e64:    2004        .       MOVS     r0,#4
        0x08002e66:    e768        h.      B        0x8002d3a ; atk_8266_send_cmd + 102
        0x08002e68:    e7ac        ..      B        0x8002dc4 ; atk_8266_send_cmd + 240
        0x08002e6a:    bf00        ..      NOP      
        0x08002e6c:    2000        .       MOVS     r0,#0
        0x08002e6e:    4903        .I      LDR      r1,[pc,#12] ; [0x8002e7c] = 0x20000034
        0x08002e70:    8008        ..      STRH     r0,[r1,#0]
        0x08002e72:    4638        8F      MOV      r0,r7
        0x08002e74:    e761        a.      B        0x8002d3a ; atk_8266_send_cmd + 102
    $d
        0x08002e76:    0000        ..      DCW    0
        0x08002e78:    20000054    T..     DCD    536870996
        0x08002e7c:    20000034    4..     DCD    536870964
        0x08002e80:    0a0d7325    %s..    DCD    168653605
        0x08002e84:    00000000    ....    DCD    0
        0x08002e88:    444e4553    SEND    DCD    1145980243
        0x08002e8c:    54414420     DAT    DCD    1413563424
        0x08002e90:    00000041    A...    DCD    65
        0x08002e94:    4f525245    ERRO    DCD    1330795077
        0x08002e98:    00000052    R...    DCD    82
        0x08002e9c:    4c494146    FAIL    DCD    1279869254
        0x08002ea0:    00000000    ....    DCD    0
    $t
    i.atk_8266_send_data_neat
    atk_8266_send_data_neat
        0x08002ea4:    e92d41f0    -..A    PUSH     {r4-r8,lr}
        0x08002ea8:    4606        .F      MOV      r6,r0
        0x08002eaa:    460f        .F      MOV      r7,r1
        0x08002eac:    4615        .F      MOV      r5,r2
        0x08002eae:    461c        .F      MOV      r4,r3
        0x08002eb0:    4868        hH      LDR      r0,[pc,#416] ; [0x8003054] = 0x20000054
        0x08002eb2:    6800        .h      LDR      r0,[r0,#0]
        0x08002eb4:    1c40        @.      ADDS     r0,r0,#1
        0x08002eb6:    4967        gI      LDR      r1,[pc,#412] ; [0x8003054] = 0x20000054
        0x08002eb8:    6008        .`      STR      r0,[r1,#0]
        0x08002eba:    f04f0800    O...    MOV      r8,#0
        0x08002ebe:    2000        .       MOVS     r0,#0
        0x08002ec0:    4965        eI      LDR      r1,[pc,#404] ; [0x8003058] = 0x20000034
        0x08002ec2:    8008        ..      STRH     r0,[r1,#0]
        0x08002ec4:    4639        9F      MOV      r1,r7
        0x08002ec6:    a065        e.      ADR      r0,{pc}+0x196 ; 0x800305c
        0x08002ec8:    f7fdfa0c    ....    BL       __2printf ; 0x80002e4
        0x08002ecc:    4639        9F      MOV      r1,r7
        0x08002ece:    4630        0F      MOV      r0,r6
        0x08002ed0:    f000fbd4    ....    BL       u3_printf_neat ; 0x800367c
        0x08002ed4:    2d00        .-      CMP      r5,#0
        0x08002ed6:    d060        `.      BEQ      0x8002f9a ; atk_8266_send_data_neat + 246
        0x08002ed8:    2c00        .,      CMP      r4,#0
        0x08002eda:    d0fc        ..      BEQ      0x8002ed6 ; atk_8266_send_data_neat + 50
        0x08002edc:    dd5e        ^.      BLE      0x8002f9c ; atk_8266_send_data_neat + 248
        0x08002ede:    e053        S.      B        0x8002f88 ; atk_8266_send_data_neat + 228
        0x08002ee0:    200a        .       MOVS     r0,#0xa
        0x08002ee2:    f000f94b    ..K.    BL       delay_ms ; 0x800317c
        0x08002ee6:    485c        \H      LDR      r0,[pc,#368] ; [0x8003058] = 0x20000034
        0x08002ee8:    8800        ..      LDRH     r0,[r0,#0]
        0x08002eea:    f4004080    ...@    AND      r0,r0,#0x4000
        0x08002eee:    2800        .(      CMP      r0,#0
        0x08002ef0:    d022        ".      BEQ      0x8002f38 ; atk_8266_send_data_neat + 148
        0x08002ef2:    4629        )F      MOV      r1,r5
        0x08002ef4:    a060        `.      ADR      r0,{pc}+0x184 ; 0x8003078
        0x08002ef6:    f7fffed7    ....    BL       atk_8266_check_cmd ; 0x8002ca8
        0x08002efa:    b118        ..      CBZ      r0,0x8002f04 ; atk_8266_send_data_neat + 96
        0x08002efc:    2000        .       MOVS     r0,#0
        0x08002efe:    4956        VI      LDR      r1,[pc,#344] ; [0x8003058] = 0x20000034
        0x08002f00:    8008        ..      STRH     r0,[r1,#0]
        0x08002f02:    e045        E.      B        0x8002f90 ; atk_8266_send_data_neat + 236
        0x08002f04:    a15f        _.      ADR      r1,{pc}+0x180 ; 0x8003084
        0x08002f06:    a05c        \.      ADR      r0,{pc}+0x172 ; 0x8003078
        0x08002f08:    f7fffece    ....    BL       atk_8266_check_cmd ; 0x8002ca8
        0x08002f0c:    b128        (.      CBZ      r0,0x8002f1a ; atk_8266_send_data_neat + 118
        0x08002f0e:    2000        .       MOVS     r0,#0
        0x08002f10:    4951        QI      LDR      r1,[pc,#324] ; [0x8003058] = 0x20000034
        0x08002f12:    8008        ..      STRH     r0,[r1,#0]
        0x08002f14:    2003        .       MOVS     r0,#3
        0x08002f16:    e8bd81f0    ....    POP      {r4-r8,pc}
        0x08002f1a:    a15c        \.      ADR      r1,{pc}+0x172 ; 0x800308c
        0x08002f1c:    a056        V.      ADR      r0,{pc}+0x15c ; 0x8003078
        0x08002f1e:    f7fffec3    ....    BL       atk_8266_check_cmd ; 0x8002ca8
        0x08002f22:    b120         .      CBZ      r0,0x8002f2e ; atk_8266_send_data_neat + 138
        0x08002f24:    2000        .       MOVS     r0,#0
        0x08002f26:    494c        LI      LDR      r1,[pc,#304] ; [0x8003058] = 0x20000034
        0x08002f28:    8008        ..      STRH     r0,[r1,#0]
        0x08002f2a:    2004        .       MOVS     r0,#4
        0x08002f2c:    e7f3        ..      B        0x8002f16 ; atk_8266_send_data_neat + 114
        0x08002f2e:    2000        .       MOVS     r0,#0
        0x08002f30:    4949        II      LDR      r1,[pc,#292] ; [0x8003058] = 0x20000034
        0x08002f32:    8008        ..      STRH     r0,[r1,#0]
        0x08002f34:    2002        .       MOVS     r0,#2
        0x08002f36:    e7ee        ..      B        0x8002f16 ; atk_8266_send_data_neat + 114
        0x08002f38:    4847        GH      LDR      r0,[pc,#284] ; [0x8003058] = 0x20000034
        0x08002f3a:    8800        ..      LDRH     r0,[r0,#0]
        0x08002f3c:    f4004000    ...@    AND      r0,r0,#0x8000
        0x08002f40:    b310        ..      CBZ      r0,0x8002f88 ; atk_8266_send_data_neat + 228
        0x08002f42:    4845        EH      LDR      r0,[pc,#276] ; [0x8003058] = 0x20000034
        0x08002f44:    8800        ..      LDRH     r0,[r0,#0]
        0x08002f46:    f4204000     ..@    BIC      r0,r0,#0x8000
        0x08002f4a:    4943        CI      LDR      r1,[pc,#268] ; [0x8003058] = 0x20000034
        0x08002f4c:    8008        ..      STRH     r0,[r1,#0]
        0x08002f4e:    4629        )F      MOV      r1,r5
        0x08002f50:    a049        I.      ADR      r0,{pc}+0x128 ; 0x8003078
        0x08002f52:    f7fffea9    ....    BL       atk_8266_check_cmd ; 0x8002ca8
        0x08002f56:    b118        ..      CBZ      r0,0x8002f60 ; atk_8266_send_data_neat + 188
        0x08002f58:    2000        .       MOVS     r0,#0
        0x08002f5a:    493f        ?I      LDR      r1,[pc,#252] ; [0x8003058] = 0x20000034
        0x08002f5c:    8008        ..      STRH     r0,[r1,#0]
        0x08002f5e:    e017        ..      B        0x8002f90 ; atk_8266_send_data_neat + 236
        0x08002f60:    a148        H.      ADR      r1,{pc}+0x124 ; 0x8003084
        0x08002f62:    a045        E.      ADR      r0,{pc}+0x116 ; 0x8003078
        0x08002f64:    f7fffea0    ....    BL       atk_8266_check_cmd ; 0x8002ca8
        0x08002f68:    b120         .      CBZ      r0,0x8002f74 ; atk_8266_send_data_neat + 208
        0x08002f6a:    2000        .       MOVS     r0,#0
        0x08002f6c:    493a        :I      LDR      r1,[pc,#232] ; [0x8003058] = 0x20000034
        0x08002f6e:    8008        ..      STRH     r0,[r1,#0]
        0x08002f70:    2003        .       MOVS     r0,#3
        0x08002f72:    e7d0        ..      B        0x8002f16 ; atk_8266_send_data_neat + 114
        0x08002f74:    a145        E.      ADR      r1,{pc}+0x118 ; 0x800308c
        0x08002f76:    a040        @.      ADR      r0,{pc}+0x102 ; 0x8003078
        0x08002f78:    f7fffe96    ....    BL       atk_8266_check_cmd ; 0x8002ca8
        0x08002f7c:    b120         .      CBZ      r0,0x8002f88 ; atk_8266_send_data_neat + 228
        0x08002f7e:    2000        .       MOVS     r0,#0
        0x08002f80:    4935        5I      LDR      r1,[pc,#212] ; [0x8003058] = 0x20000034
        0x08002f82:    8008        ..      STRH     r0,[r1,#0]
        0x08002f84:    2004        .       MOVS     r0,#4
        0x08002f86:    e7c6        ..      B        0x8002f16 ; atk_8266_send_data_neat + 114
        0x08002f88:    1e60        `.      SUBS     r0,r4,#1
        0x08002f8a:    b200        ..      SXTH     r0,r0
        0x08002f8c:    1e04        ..      SUBS     r4,r0,#0
        0x08002f8e:    d1a7        ..      BNE      0x8002ee0 ; atk_8266_send_data_neat + 60
        0x08002f90:    bf00        ..      NOP      
        0x08002f92:    2c00        .,      CMP      r4,#0
        0x08002f94:    d159        Y.      BNE      0x800304a ; atk_8266_send_data_neat + 422
        0x08002f96:    f04f0801    O...    MOV      r8,#1
        0x08002f9a:    e056        V.      B        0x800304a ; atk_8266_send_data_neat + 422
        0x08002f9c:    2c00        .,      CMP      r4,#0
        0x08002f9e:    da54        T.      BGE      0x800304a ; atk_8266_send_data_neat + 422
        0x08002fa0:    e051        Q.      B        0x8003046 ; atk_8266_send_data_neat + 418
        0x08002fa2:    200a        .       MOVS     r0,#0xa
        0x08002fa4:    f000f8ea    ....    BL       delay_ms ; 0x800317c
        0x08002fa8:    482b        +H      LDR      r0,[pc,#172] ; [0x8003058] = 0x20000034
        0x08002faa:    8800        ..      LDRH     r0,[r0,#0]
        0x08002fac:    f4004080    ...@    AND      r0,r0,#0x4000
        0x08002fb0:    b308        ..      CBZ      r0,0x8002ff6 ; atk_8266_send_data_neat + 338
        0x08002fb2:    4629        )F      MOV      r1,r5
        0x08002fb4:    a030        0.      ADR      r0,{pc}+0xc4 ; 0x8003078
        0x08002fb6:    f7fffe77    ..w.    BL       atk_8266_check_cmd ; 0x8002ca8
        0x08002fba:    b118        ..      CBZ      r0,0x8002fc4 ; atk_8266_send_data_neat + 288
        0x08002fbc:    2000        .       MOVS     r0,#0
        0x08002fbe:    4926        &I      LDR      r1,[pc,#152] ; [0x8003058] = 0x20000034
        0x08002fc0:    8008        ..      STRH     r0,[r1,#0]
        0x08002fc2:    e041        A.      B        0x8003048 ; atk_8266_send_data_neat + 420
        0x08002fc4:    a12f        /.      ADR      r1,{pc}+0xc0 ; 0x8003084
        0x08002fc6:    a02c        ,.      ADR      r0,{pc}+0xb2 ; 0x8003078
        0x08002fc8:    f7fffe6e    ..n.    BL       atk_8266_check_cmd ; 0x8002ca8
        0x08002fcc:    b120         .      CBZ      r0,0x8002fd8 ; atk_8266_send_data_neat + 308
        0x08002fce:    2000        .       MOVS     r0,#0
        0x08002fd0:    4921        !I      LDR      r1,[pc,#132] ; [0x8003058] = 0x20000034
        0x08002fd2:    8008        ..      STRH     r0,[r1,#0]
        0x08002fd4:    2003        .       MOVS     r0,#3
        0x08002fd6:    e79e        ..      B        0x8002f16 ; atk_8266_send_data_neat + 114
        0x08002fd8:    a12c        ,.      ADR      r1,{pc}+0xb4 ; 0x800308c
        0x08002fda:    a027        '.      ADR      r0,{pc}+0x9e ; 0x8003078
        0x08002fdc:    f7fffe64    ..d.    BL       atk_8266_check_cmd ; 0x8002ca8
        0x08002fe0:    b120         .      CBZ      r0,0x8002fec ; atk_8266_send_data_neat + 328
        0x08002fe2:    2000        .       MOVS     r0,#0
        0x08002fe4:    491c        .I      LDR      r1,[pc,#112] ; [0x8003058] = 0x20000034
        0x08002fe6:    8008        ..      STRH     r0,[r1,#0]
        0x08002fe8:    2004        .       MOVS     r0,#4
        0x08002fea:    e794        ..      B        0x8002f16 ; atk_8266_send_data_neat + 114
        0x08002fec:    2000        .       MOVS     r0,#0
        0x08002fee:    491a        .I      LDR      r1,[pc,#104] ; [0x8003058] = 0x20000034
        0x08002ff0:    8008        ..      STRH     r0,[r1,#0]
        0x08002ff2:    2002        .       MOVS     r0,#2
        0x08002ff4:    e78f        ..      B        0x8002f16 ; atk_8266_send_data_neat + 114
        0x08002ff6:    4818        .H      LDR      r0,[pc,#96] ; [0x8003058] = 0x20000034
        0x08002ff8:    8800        ..      LDRH     r0,[r0,#0]
        0x08002ffa:    f4004000    ...@    AND      r0,r0,#0x8000
        0x08002ffe:    b310        ..      CBZ      r0,0x8003046 ; atk_8266_send_data_neat + 418
        0x08003000:    4815        .H      LDR      r0,[pc,#84] ; [0x8003058] = 0x20000034
        0x08003002:    8800        ..      LDRH     r0,[r0,#0]
        0x08003004:    f4204000     ..@    BIC      r0,r0,#0x8000
        0x08003008:    4913        .I      LDR      r1,[pc,#76] ; [0x8003058] = 0x20000034
        0x0800300a:    8008        ..      STRH     r0,[r1,#0]
        0x0800300c:    4629        )F      MOV      r1,r5
        0x0800300e:    a01a        ..      ADR      r0,{pc}+0x6a ; 0x8003078
        0x08003010:    f7fffe4a    ..J.    BL       atk_8266_check_cmd ; 0x8002ca8
        0x08003014:    b118        ..      CBZ      r0,0x800301e ; atk_8266_send_data_neat + 378
        0x08003016:    2000        .       MOVS     r0,#0
        0x08003018:    490f        .I      LDR      r1,[pc,#60] ; [0x8003058] = 0x20000034
        0x0800301a:    8008        ..      STRH     r0,[r1,#0]
        0x0800301c:    e014        ..      B        0x8003048 ; atk_8266_send_data_neat + 420
        0x0800301e:    a119        ..      ADR      r1,{pc}+0x66 ; 0x8003084
        0x08003020:    a015        ..      ADR      r0,{pc}+0x58 ; 0x8003078
        0x08003022:    f7fffe41    ..A.    BL       atk_8266_check_cmd ; 0x8002ca8
        0x08003026:    b120         .      CBZ      r0,0x8003032 ; atk_8266_send_data_neat + 398
        0x08003028:    2000        .       MOVS     r0,#0
        0x0800302a:    490b        .I      LDR      r1,[pc,#44] ; [0x8003058] = 0x20000034
        0x0800302c:    8008        ..      STRH     r0,[r1,#0]
        0x0800302e:    2003        .       MOVS     r0,#3
        0x08003030:    e771        q.      B        0x8002f16 ; atk_8266_send_data_neat + 114
        0x08003032:    a116        ..      ADR      r1,{pc}+0x5a ; 0x800308c
        0x08003034:    a010        ..      ADR      r0,{pc}+0x44 ; 0x8003078
        0x08003036:    f7fffe37    ..7.    BL       atk_8266_check_cmd ; 0x8002ca8
        0x0800303a:    b120         .      CBZ      r0,0x8003046 ; atk_8266_send_data_neat + 418
        0x0800303c:    2000        .       MOVS     r0,#0
        0x0800303e:    4906        .I      LDR      r1,[pc,#24] ; [0x8003058] = 0x20000034
        0x08003040:    8008        ..      STRH     r0,[r1,#0]
        0x08003042:    2004        .       MOVS     r0,#4
        0x08003044:    e767        g.      B        0x8002f16 ; atk_8266_send_data_neat + 114
        0x08003046:    e7ac        ..      B        0x8002fa2 ; atk_8266_send_data_neat + 254
        0x08003048:    bf00        ..      NOP      
        0x0800304a:    2000        .       MOVS     r0,#0
        0x0800304c:    4902        .I      LDR      r1,[pc,#8] ; [0x8003058] = 0x20000034
        0x0800304e:    8008        ..      STRH     r0,[r1,#0]
        0x08003050:    4640        @F      MOV      r0,r8
        0x08003052:    e760        `.      B        0x8002f16 ; atk_8266_send_data_neat + 114
    $d
        0x08003054:    20000054    T..     DCD    536870996
        0x08003058:    20000034    4..     DCD    536870964
        0x0800305c:    20642528    (%d     DCD    543434024
        0x08003060:    65747962    byte    DCD    1702132066
        0x08003064:    65732973    s)se    DCD    1702046067
        0x08003068:    6420646e    nd d    DCD    1679844462
        0x0800306c:    20617461    ata     DCD    543257697
        0x08003070:    6e727574    turn    DCD    1852994932
        0x08003074:    00000a0d    ....    DCD    2573
        0x08003078:    444e4553    SEND    DCD    1145980243
        0x0800307c:    54414420     DAT    DCD    1413563424
        0x08003080:    00000041    A...    DCD    65
        0x08003084:    4f525245    ERRO    DCD    1330795077
        0x08003088:    00000052    R...    DCD    82
        0x0800308c:    4c494146    FAIL    DCD    1279869254
        0x08003090:    00000000    ....    DCD    0
    $t
    i.atk_8266_send_data_neat_large
    atk_8266_send_data_neat_large
        0x08003094:    e92d4ff0    -..O    PUSH     {r4-r11,lr}
        0x08003098:    b09b        ..      SUB      sp,sp,#0x6c
        0x0800309a:    4607        .F      MOV      r7,r0
        0x0800309c:    4688        .F      MOV      r8,r1
        0x0800309e:    4692        .F      MOV      r10,r2
        0x080030a0:    469b        .F      MOV      r11,r3
        0x080030a2:    f44f6000    O..`    MOV      r0,#0x800
        0x080030a6:    901a        ..      STR      r0,[sp,#0x68]
        0x080030a8:    f04f0900    O...    MOV      r9,#0
        0x080030ac:    4644        DF      MOV      r4,r8
        0x080030ae:    e027        '.      B        0x8003100 ; atk_8266_send_data_neat_large + 108
        0x080030b0:    f5a46000    ...`    SUB      r0,r4,#0x800
        0x080030b4:    9000        ..      STR      r0,[sp,#0]
        0x080030b6:    9800        ..      LDR      r0,[sp,#0]
        0x080030b8:    2800        .(      CMP      r0,#0
        0x080030ba:    dd02        ..      BLE      0x80030c2 ; atk_8266_send_data_neat_large + 46
        0x080030bc:    f44f6500    O..e    MOV      r5,#0x800
        0x080030c0:    e000        ..      B        0x80030c4 ; atk_8266_send_data_neat_large + 48
        0x080030c2:    4625        %F      MOV      r5,r4
        0x080030c4:    462a        *F      MOV      r2,r5
        0x080030c6:    a111        ..      ADR      r1,{pc}+0x46 ; 0x800310c
        0x080030c8:    a801        ..      ADD      r0,sp,#4
        0x080030ca:    f7fdf917    ....    BL       __2sprintf ; 0x80002fc
        0x080030ce:    bf00        ..      NOP      
        0x080030d0:    f04f32ff    O..2    MOV      r2,#0xffffffff
        0x080030d4:    a111        ..      ADR      r1,{pc}+0x48 ; 0x800311c
        0x080030d6:    a801        ..      ADD      r0,sp,#4
        0x080030d8:    f7fffdfc    ....    BL       atk_8266_send_cmd ; 0x8002cd4
        0x080030dc:    eb070009    ....    ADD      r0,r7,r9
        0x080030e0:    465b        [F      MOV      r3,r11
        0x080030e2:    4652        RF      MOV      r2,r10
        0x080030e4:    4629        )F      MOV      r1,r5
        0x080030e6:    f7fffedd    ....    BL       atk_8266_send_data_neat ; 0x8002ea4
        0x080030ea:    4606        .F      MOV      r6,r0
        0x080030ec:    2014        .       MOVS     r0,#0x14
        0x080030ee:    f000f845    ..E.    BL       delay_ms ; 0x800317c
        0x080030f2:    2e03        ..      CMP      r6,#3
        0x080030f4:    d0ec        ..      BEQ      0x80030d0 ; atk_8266_send_data_neat_large + 60
        0x080030f6:    2e04        ..      CMP      r6,#4
        0x080030f8:    d0ea        ..      BEQ      0x80030d0 ; atk_8266_send_data_neat_large + 60
        0x080030fa:    44a9        .D      ADD      r9,r9,r5
        0x080030fc:    1b64        d.      SUBS     r4,r4,r5
        0x080030fe:    bf00        ..      NOP      
        0x08003100:    2c00        .,      CMP      r4,#0
        0x08003102:    d1d5        ..      BNE      0x80030b0 ; atk_8266_send_data_neat_large + 28
        0x08003104:    b01b        ..      ADD      sp,sp,#0x6c
        0x08003106:    e8bd8ff0    ....    POP      {r4-r11,pc}
    $d
        0x0800310a:    0000        ..      DCW    0
        0x0800310c:    432b5441    AT+C    DCD    1126913089
        0x08003110:    45535049    IPSE    DCD    1163087945
        0x08003114:    253d444e    ND=%    DCD    624772174
        0x08003118:    000a0d64    d...    DCD    658788
        0x0800311c:    00004b4f    OK..    DCD    19279
    $t
    i.delay
    delay
        0x08003120:    b530        0.      PUSH     {r4,r5,lr}
        0x08003122:    4604        .F      MOV      r4,r0
        0x08003124:    2500        .%      MOVS     r5,#0
        0x08003126:    e004        ..      B        0x8003132 ; delay + 18
        0x08003128:    f44f707a    O.zp    MOV      r0,#0x3e8
        0x0800312c:    f000f826    ..&.    BL       delay_ms ; 0x800317c
        0x08003130:    1c6d        m.      ADDS     r5,r5,#1
        0x08003132:    42a5        .B      CMP      r5,r4
        0x08003134:    d3f8        ..      BCC      0x8003128 ; delay + 8
        0x08003136:    bd30        0.      POP      {r4,r5,pc}
    i.delay_init
    delay_init
        0x08003138:    b510        ..      PUSH     {r4,lr}
        0x0800313a:    f06f0004    o...    MVN      r0,#4
        0x0800313e:    f7fffa07    ....    BL       SysTick_CLKSourceConfig ; 0x8002550
        0x08003142:    480a        .H      LDR      r0,[pc,#40] ; [0x800316c] = 0x20000000
        0x08003144:    6800        .h      LDR      r0,[r0,#0]
        0x08003146:    490a        .I      LDR      r1,[pc,#40] ; [0x8003170] = 0x7a1200
        0x08003148:    fbb0f0f1    ....    UDIV     r0,r0,r1
        0x0800314c:    4909        .I      LDR      r1,[pc,#36] ; [0x8003174] = 0x20000014
        0x0800314e:    7008        .p      STRB     r0,[r1,#0]
        0x08003150:    4608        .F      MOV      r0,r1
        0x08003152:    7800        .x      LDRB     r0,[r0,#0]
        0x08003154:    eb000140    ..@.    ADD      r1,r0,r0,LSL #1
        0x08003158:    ebc110c0    ....    RSB      r0,r1,r0,LSL #7
        0x0800315c:    f64f71ff    O..q    MOV      r1,#0xffff
        0x08003160:    ea0100c0    ....    AND      r0,r1,r0,LSL #3
        0x08003164:    4904        .I      LDR      r1,[pc,#16] ; [0x8003178] = 0x20000016
        0x08003166:    8008        ..      STRH     r0,[r1,#0]
        0x08003168:    bd10        ..      POP      {r4,pc}
    $d
        0x0800316a:    0000        ..      DCW    0
        0x0800316c:    20000000    ...     DCD    536870912
        0x08003170:    007a1200    ..z.    DCD    8000000
        0x08003174:    20000014    ...     DCD    536870932
        0x08003178:    20000016    ...     DCD    536870934
    $t
    i.delay_ms
    delay_ms
        0x0800317c:    4601        .F      MOV      r1,r0
        0x0800317e:    4a11        .J      LDR      r2,[pc,#68] ; [0x80031c4] = 0x20000016
        0x08003180:    8812        ..      LDRH     r2,[r2,#0]
        0x08003182:    434a        JC      MULS     r2,r1,r2
        0x08003184:    f04f23e0    O..#    MOV      r3,#0xe000e000
        0x08003188:    615a        Za      STR      r2,[r3,#0x14]
        0x0800318a:    2200        ."      MOVS     r2,#0
        0x0800318c:    619a        .a      STR      r2,[r3,#0x18]
        0x0800318e:    461a        .F      MOV      r2,r3
        0x08003190:    6912        .i      LDR      r2,[r2,#0x10]
        0x08003192:    f0420201    B...    ORR      r2,r2,#1
        0x08003196:    611a        .a      STR      r2,[r3,#0x10]
        0x08003198:    bf00        ..      NOP      
        0x0800319a:    f04f22e0    O.."    MOV      r2,#0xe000e000
        0x0800319e:    6910        .i      LDR      r0,[r2,#0x10]
        0x080031a0:    f0000201    ....    AND      r2,r0,#1
        0x080031a4:    b11a        ..      CBZ      r2,0x80031ae ; delay_ms + 50
        0x080031a6:    f4003280    ...2    AND      r2,r0,#0x10000
        0x080031aa:    2a00        .*      CMP      r2,#0
        0x080031ac:    d0f5        ..      BEQ      0x800319a ; delay_ms + 30
        0x080031ae:    f04f22e0    O.."    MOV      r2,#0xe000e000
        0x080031b2:    6912        .i      LDR      r2,[r2,#0x10]
        0x080031b4:    f0220201    "...    BIC      r2,r2,#1
        0x080031b8:    f04f23e0    O..#    MOV      r3,#0xe000e000
        0x080031bc:    611a        .a      STR      r2,[r3,#0x10]
        0x080031be:    2200        ."      MOVS     r2,#0
        0x080031c0:    619a        .a      STR      r2,[r3,#0x18]
        0x080031c2:    4770        pG      BX       lr
    $d
        0x080031c4:    20000016    ...     DCD    536870934
    $t
    i.delay_us
    delay_us
        0x080031c8:    4601        .F      MOV      r1,r0
        0x080031ca:    4a11        .J      LDR      r2,[pc,#68] ; [0x8003210] = 0x20000014
        0x080031cc:    7812        .x      LDRB     r2,[r2,#0]
        0x080031ce:    434a        JC      MULS     r2,r1,r2
        0x080031d0:    f04f23e0    O..#    MOV      r3,#0xe000e000
        0x080031d4:    615a        Za      STR      r2,[r3,#0x14]
        0x080031d6:    2200        ."      MOVS     r2,#0
        0x080031d8:    619a        .a      STR      r2,[r3,#0x18]
        0x080031da:    461a        .F      MOV      r2,r3
        0x080031dc:    6912        .i      LDR      r2,[r2,#0x10]
        0x080031de:    f0420201    B...    ORR      r2,r2,#1
        0x080031e2:    611a        .a      STR      r2,[r3,#0x10]
        0x080031e4:    bf00        ..      NOP      
        0x080031e6:    f04f22e0    O.."    MOV      r2,#0xe000e000
        0x080031ea:    6910        .i      LDR      r0,[r2,#0x10]
        0x080031ec:    f0000201    ....    AND      r2,r0,#1
        0x080031f0:    b11a        ..      CBZ      r2,0x80031fa ; delay_us + 50
        0x080031f2:    f4003280    ...2    AND      r2,r0,#0x10000
        0x080031f6:    2a00        .*      CMP      r2,#0
        0x080031f8:    d0f5        ..      BEQ      0x80031e6 ; delay_us + 30
        0x080031fa:    f04f22e0    O.."    MOV      r2,#0xe000e000
        0x080031fe:    6912        .i      LDR      r2,[r2,#0x10]
        0x08003200:    f0220201    "...    BIC      r2,r2,#1
        0x08003204:    f04f23e0    O..#    MOV      r3,#0xe000e000
        0x08003208:    611a        .a      STR      r2,[r3,#0x10]
        0x0800320a:    2200        ."      MOVS     r2,#0
        0x0800320c:    619a        .a      STR      r2,[r3,#0x18]
        0x0800320e:    4770        pG      BX       lr
    $d
        0x08003210:    20000014    ...     DCD    536870932
    $t
    i.fputc
    fputc
        0x08003214:    bf00        ..      NOP      
        0x08003216:    4a05        .J      LDR      r2,[pc,#20] ; [0x800322c] = 0x40013800
        0x08003218:    8812        ..      LDRH     r2,[r2,#0]
        0x0800321a:    f0020240    ..@.    AND      r2,r2,#0x40
        0x0800321e:    2a00        .*      CMP      r2,#0
        0x08003220:    d0f9        ..      BEQ      0x8003216 ; fputc + 2
        0x08003222:    b2c2        ..      UXTB     r2,r0
        0x08003224:    4b01        .K      LDR      r3,[pc,#4] ; [0x800322c] = 0x40013800
        0x08003226:    1d1b        ..      ADDS     r3,r3,#4
        0x08003228:    801a        ..      STRH     r2,[r3,#0]
        0x0800322a:    4770        pG      BX       lr
    $d
        0x0800322c:    40013800    .8.@    DCD    1073821696
    $t
    i.get_light
    get_light
        0x08003230:    b510        ..      PUSH     {r4,lr}
        0x08003232:    f44f5180    O..Q    MOV      r1,#0x1000
        0x08003236:    4802        .H      LDR      r0,[pc,#8] ; [0x8003240] = 0x40011800
        0x08003238:    f7feff25    ..%.    BL       GPIO_ReadInputDataBit ; 0x8002086
        0x0800323c:    bd10        ..      POP      {r4,pc}
    $d
        0x0800323e:    0000        ..      DCW    0
        0x08003240:    40011800    ...@    DCD    1073813504
    $t
    i.get_smoke
    get_smoke
        0x08003244:    b510        ..      PUSH     {r4,lr}
        0x08003246:    f44f4180    O..A    MOV      r1,#0x4000
        0x0800324a:    4802        .H      LDR      r0,[pc,#8] ; [0x8003254] = 0x40011800
        0x0800324c:    f7feff1b    ....    BL       GPIO_ReadInputDataBit ; 0x8002086
        0x08003250:    bd10        ..      POP      {r4,pc}
    $d
        0x08003252:    0000        ..      DCW    0
        0x08003254:    40011800    ...@    DCD    1073813504
    $t
    i.htonl
    htonl
        0x08003258:    4601        .F      MOV      r1,r0
        0x0800325a:    060a        ..      LSLS     r2,r1,#24
        0x0800325c:    f401437f    ...C    AND      r3,r1,#0xff00
        0x08003260:    ea422203    B.."    ORR      r2,r2,r3,LSL #8
        0x08003264:    f401037f    ....    AND      r3,r1,#0xff0000
        0x08003268:    ea422213    B.."    ORR      r2,r2,r3,LSR #8
        0x0800326c:    ea426011    B..`    ORR      r0,r2,r1,LSR #24
        0x08003270:    4770        pG      BX       lr
        0x08003272:    0000        ..      MOVS     r0,r0
    i.light_sensor_init
    light_sensor_init
        0x08003274:    b508        ..      PUSH     {r3,lr}
        0x08003276:    2101        .!      MOVS     r1,#1
        0x08003278:    2040        @       MOVS     r0,#0x40
        0x0800327a:    f7feff9f    ....    BL       RCC_APB2PeriphClockCmd ; 0x80021bc
        0x0800327e:    f44f5080    O..P    MOV      r0,#0x1000
        0x08003282:    f8ad0000    ....    STRH     r0,[sp,#0]
        0x08003286:    2028        (       MOVS     r0,#0x28
        0x08003288:    f88d0003    ....    STRB     r0,[sp,#3]
        0x0800328c:    2003        .       MOVS     r0,#3
        0x0800328e:    f88d0002    ....    STRB     r0,[sp,#2]
        0x08003292:    4669        iF      MOV      r1,sp
        0x08003294:    4801        .H      LDR      r0,[pc,#4] ; [0x800329c] = 0x40011800
        0x08003296:    f7fefe6b    ..k.    BL       GPIO_Init ; 0x8001f70
        0x0800329a:    bd08        ..      POP      {r3,pc}
    $d
        0x0800329c:    40011800    ...@    DCD    1073813504
    $t
    i.main
    main
        0x080032a0:    b090        ..      SUB      sp,sp,#0x40
        0x080032a2:    a58d        ..      ADR      r5,{pc}+0x236 ; 0x80034d8
        0x080032a4:    a692        ..      ADR      r6,{pc}+0x24c ; 0x80034f0
        0x080032a6:    a795        ..      ADR      r7,{pc}+0x256 ; 0x80034fc
        0x080032a8:    f7ffff46    ..F.    BL       delay_init ; 0x8003138
        0x080032ac:    f44f60a0    O..`    MOV      r0,#0x500
        0x080032b0:    f7feff58    ..X.    BL       NVIC_PriorityGroupConfig ; 0x8002164
        0x080032b4:    f44f30e1    O..0    MOV      r0,#0x1c200
        0x080032b8:    f000fa04    ....    BL       uart_init ; 0x80036c4
        0x080032bc:    f7fefef0    ....    BL       LED_Init ; 0x80020a0
        0x080032c0:    f7ffffd8    ....    BL       light_sensor_init ; 0x8003274
        0x080032c4:    f000f99c    ....    BL       smoke_sensor_init ; 0x8003600
        0x080032c8:    e005        ..      B        0x80032d6 ; main + 54
        0x080032ca:    a091        ..      ADR      r0,{pc}+0x246 ; 0x8003510
        0x080032cc:    f7fdf80a    ....    BL       __2printf ; 0x80002e4
        0x080032d0:    20c8        .       MOVS     r0,#0xc8
        0x080032d2:    f7ffff53    ..S.    BL       delay_ms ; 0x800317c
        0x080032d6:    f7fefd01    ....    BL       DHT11_Init ; 0x8001cdc
        0x080032da:    2800        .(      CMP      r0,#0
        0x080032dc:    d1f5        ..      BNE      0x80032ca ; main + 42
        0x080032de:    f44f30e1    O..0    MOV      r0,#0x1c200
        0x080032e2:    f000fa3f    ..?.    BL       usart3_init ; 0x8003764
        0x080032e6:    f04f32ff    O..2    MOV      r2,#0xffffffff
        0x080032ea:    2100        .!      MOVS     r1,#0
        0x080032ec:    a08d        ..      ADR      r0,{pc}+0x238 ; 0x8003524
        0x080032ee:    f7fffcf1    ....    BL       atk_8266_send_cmd ; 0x8002cd4
        0x080032f2:    2005        .       MOVS     r0,#5
        0x080032f4:    f7ffff14    ....    BL       delay ; 0x8003120
        0x080032f8:    f04f32ff    O..2    MOV      r2,#0xffffffff
        0x080032fc:    a18c        ..      ADR      r1,{pc}+0x234 ; 0x8003530
        0x080032fe:    a08d        ..      ADR      r0,{pc}+0x236 ; 0x8003534
        0x08003300:    f7fffce8    ....    BL       atk_8266_send_cmd ; 0x8002cd4
        0x08003304:    f04f32ff    O..2    MOV      r2,#0xffffffff
        0x08003308:    a189        ..      ADR      r1,{pc}+0x228 ; 0x8003530
        0x0800330a:    a08c        ..      ADR      r0,{pc}+0x232 ; 0x800353c
        0x0800330c:    f7fffce2    ....    BL       atk_8266_send_cmd ; 0x8002cd4
        0x08003310:    f04f32ff    O..2    MOV      r2,#0xffffffff
        0x08003314:    a186        ..      ADR      r1,{pc}+0x21c ; 0x8003530
        0x08003316:    a08c        ..      ADR      r0,{pc}+0x232 ; 0x8003548
        0x08003318:    f7fffcdc    ....    BL       atk_8266_send_cmd ; 0x8002cd4
        0x0800331c:    2005        .       MOVS     r0,#5
        0x0800331e:    f7fffeff    ....    BL       delay ; 0x8003120
        0x08003322:    f04f32ff    O..2    MOV      r2,#0xffffffff
        0x08003326:    a182        ..      ADR      r1,{pc}+0x20a ; 0x8003530
        0x08003328:    a090        ..      ADR      r0,{pc}+0x244 ; 0x800356c
        0x0800332a:    f7fffcd3    ....    BL       atk_8266_send_cmd ; 0x8002cd4
        0x0800332e:    4628        (F      MOV      r0,r5
        0x08003330:    f7fdf936    ..6.    BL       strlen ; 0x80005a0
        0x08003334:    4604        .F      MOV      r4,r0
        0x08003336:    4620         F      MOV      r0,r4
        0x08003338:    f7ffff8e    ....    BL       htonl ; 0x8003258
        0x0800333c:    9001        ..      STR      r0,[sp,#4]
        0x0800333e:    f04f32ff    O..2    MOV      r2,#0xffffffff
        0x08003342:    a17b        {.      ADR      r1,{pc}+0x1ee ; 0x8003530
        0x08003344:    a093        ..      ADR      r0,{pc}+0x250 ; 0x8003594
        0x08003346:    f7fffcc5    ....    BL       atk_8266_send_cmd ; 0x8002cd4
        0x0800334a:    2364        d#      MOVS     r3,#0x64
        0x0800334c:    a278        x.      ADR      r2,{pc}+0x1e4 ; 0x8003530
        0x0800334e:    2104        .!      MOVS     r1,#4
        0x08003350:    a801        ..      ADD      r0,sp,#4
        0x08003352:    f7fffda7    ....    BL       atk_8266_send_data_neat ; 0x8002ea4
        0x08003356:    2364        d#      MOVS     r3,#0x64
        0x08003358:    a275        u.      ADR      r2,{pc}+0x1d8 ; 0x8003530
        0x0800335a:    4621        !F      MOV      r1,r4
        0x0800335c:    4628        (F      MOV      r0,r5
        0x0800335e:    f7fffe99    ....    BL       atk_8266_send_data_neat_large ; 0x8003094
        0x08003362:    4630        0F      MOV      r0,r6
        0x08003364:    f7fdf91c    ....    BL       strlen ; 0x80005a0
        0x08003368:    4604        .F      MOV      r4,r0
        0x0800336a:    4620         F      MOV      r0,r4
        0x0800336c:    f7ffff74    ..t.    BL       htonl ; 0x8003258
        0x08003370:    9001        ..      STR      r0,[sp,#4]
        0x08003372:    f04f32ff    O..2    MOV      r2,#0xffffffff
        0x08003376:    a16e        n.      ADR      r1,{pc}+0x1ba ; 0x8003530
        0x08003378:    a086        ..      ADR      r0,{pc}+0x21c ; 0x8003594
        0x0800337a:    f7fffcab    ....    BL       atk_8266_send_cmd ; 0x8002cd4
        0x0800337e:    2364        d#      MOVS     r3,#0x64
        0x08003380:    a26b        k.      ADR      r2,{pc}+0x1b0 ; 0x8003530
        0x08003382:    2104        .!      MOVS     r1,#4
        0x08003384:    a801        ..      ADD      r0,sp,#4
        0x08003386:    f7fffd8d    ....    BL       atk_8266_send_data_neat ; 0x8002ea4
        0x0800338a:    2364        d#      MOVS     r3,#0x64
        0x0800338c:    a268        h.      ADR      r2,{pc}+0x1a4 ; 0x8003530
        0x0800338e:    4621        !F      MOV      r1,r4
        0x08003390:    4630        0F      MOV      r0,r6
        0x08003392:    f7fffe7f    ....    BL       atk_8266_send_data_neat_large ; 0x8003094
        0x08003396:    2014        .       MOVS     r0,#0x14
        0x08003398:    f7fffef0    ....    BL       delay_ms ; 0x800317c
        0x0800339c:    4638        8F      MOV      r0,r7
        0x0800339e:    f7fdf8ff    ....    BL       strlen ; 0x80005a0
        0x080033a2:    4604        .F      MOV      r4,r0
        0x080033a4:    4620         F      MOV      r0,r4
        0x080033a6:    f7ffff57    ..W.    BL       htonl ; 0x8003258
        0x080033aa:    9001        ..      STR      r0,[sp,#4]
        0x080033ac:    f04f32ff    O..2    MOV      r2,#0xffffffff
        0x080033b0:    a15f        _.      ADR      r1,{pc}+0x180 ; 0x8003530
        0x080033b2:    a078        x.      ADR      r0,{pc}+0x1e2 ; 0x8003594
        0x080033b4:    f7fffc8e    ....    BL       atk_8266_send_cmd ; 0x8002cd4
        0x080033b8:    2364        d#      MOVS     r3,#0x64
        0x080033ba:    a25d        ].      ADR      r2,{pc}+0x176 ; 0x8003530
        0x080033bc:    2104        .!      MOVS     r1,#4
        0x080033be:    a801        ..      ADD      r0,sp,#4
        0x080033c0:    f7fffd70    ..p.    BL       atk_8266_send_data_neat ; 0x8002ea4
        0x080033c4:    2364        d#      MOVS     r3,#0x64
        0x080033c6:    a25a        Z.      ADR      r2,{pc}+0x16a ; 0x8003530
        0x080033c8:    4621        !F      MOV      r1,r4
        0x080033ca:    4638        8F      MOV      r0,r7
        0x080033cc:    f7fffe62    ..b.    BL       atk_8266_send_data_neat_large ; 0x8003094
        0x080033d0:    2014        .       MOVS     r0,#0x14
        0x080033d2:    f7fffed3    ....    BL       delay_ms ; 0x800317c
        0x080033d6:    e07d        }.      B        0x80034d4 ; main + 564
        0x080033d8:    a902        ..      ADD      r1,sp,#8
        0x080033da:    a803        ..      ADD      r0,sp,#0xc
        0x080033dc:    f7fefcd3    ....    BL       DHT11_Read_Data ; 0x8001d86
        0x080033e0:    f7ffff26    ..&.    BL       get_light ; 0x8003230
        0x080033e4:    4680        .F      MOV      r8,r0
        0x080033e6:    f7ffff2d    ..-.    BL       get_smoke ; 0x8003244
        0x080033ea:    4681        .F      MOV      r9,r0
        0x080033ec:    f8bd000c    ....    LDRH     r0,[sp,#0xc]
        0x080033f0:    b2c3        ..      UXTB     r3,r0
        0x080033f2:    0a02        ..      LSRS     r2,r0,#8
        0x080033f4:    a16b        k.      ADR      r1,{pc}+0x1b0 ; 0x80035a4
        0x080033f6:    a80b        ..      ADD      r0,sp,#0x2c
        0x080033f8:    f7fcff80    ....    BL       __2sprintf ; 0x80002fc
        0x080033fc:    f8bd0008    ....    LDRH     r0,[sp,#8]
        0x08003400:    b2c3        ..      UXTB     r3,r0
        0x08003402:    0a02        ..      LSRS     r2,r0,#8
        0x08003404:    a167        g.      ADR      r1,{pc}+0x1a0 ; 0x80035a4
        0x08003406:    a806        ..      ADD      r0,sp,#0x18
        0x08003408:    f7fcff78    ..x.    BL       __2sprintf ; 0x80002fc
        0x0800340c:    4642        BF      MOV      r2,r8
        0x0800340e:    a167        g.      ADR      r1,{pc}+0x19e ; 0x80035ac
        0x08003410:    a805        ..      ADD      r0,sp,#0x14
        0x08003412:    f7fcff73    ..s.    BL       __2sprintf ; 0x80002fc
        0x08003416:    464a        JF      MOV      r2,r9
        0x08003418:    a164        d.      ADR      r1,{pc}+0x194 ; 0x80035ac
        0x0800341a:    a804        ..      ADD      r0,sp,#0x10
        0x0800341c:    f7fcff6e    ..n.    BL       __2sprintf ; 0x80002fc
        0x08003420:    a804        ..      ADD      r0,sp,#0x10
        0x08003422:    ab05        ..      ADD      r3,sp,#0x14
        0x08003424:    aa06        ..      ADD      r2,sp,#0x18
        0x08003426:    a90b        ..      ADD      r1,sp,#0x2c
        0x08003428:    9000        ..      STR      r0,[sp,#0]
        0x0800342a:    a061        a.      ADR      r0,{pc}+0x186 ; 0x80035b0
        0x0800342c:    f7fcff5a    ..Z.    BL       __2printf ; 0x80002e4
        0x08003430:    2264        d"      MOVS     r2,#0x64
        0x08003432:    a13f        ?.      ADR      r1,{pc}+0xfe ; 0x8003530
        0x08003434:    a057        W.      ADR      r0,{pc}+0x160 ; 0x8003594
        0x08003436:    f7fffc4d    ..M.    BL       atk_8266_send_cmd ; 0x8002cd4
        0x0800343a:    2424        $$      MOVS     r4,#0x24
        0x0800343c:    4620         F      MOV      r0,r4
        0x0800343e:    f7ffff0b    ....    BL       htonl ; 0x8003258
        0x08003442:    9001        ..      STR      r0,[sp,#4]
        0x08003444:    2364        d#      MOVS     r3,#0x64
        0x08003446:    a23a        :.      ADR      r2,{pc}+0xea ; 0x8003530
        0x08003448:    2104        .!      MOVS     r1,#4
        0x0800344a:    a801        ..      ADD      r0,sp,#4
        0x0800344c:    f7fffd2a    ..*.    BL       atk_8266_send_data_neat ; 0x8002ea4
        0x08003450:    2014        .       MOVS     r0,#0x14
        0x08003452:    f7fffe93    ....    BL       delay_ms ; 0x800317c
        0x08003456:    f04f32ff    O..2    MOV      r2,#0xffffffff
        0x0800345a:    a135        5.      ADR      r1,{pc}+0xd6 ; 0x8003530
        0x0800345c:    a05d        ].      ADR      r0,{pc}+0x178 ; 0x80035d4
        0x0800345e:    f7fffc39    ..9.    BL       atk_8266_send_cmd ; 0x8002cd4
        0x08003462:    2364        d#      MOVS     r3,#0x64
        0x08003464:    a232        2.      ADR      r2,{pc}+0xcc ; 0x8003530
        0x08003466:    2111        .!      MOVS     r1,#0x11
        0x08003468:    a80b        ..      ADD      r0,sp,#0x2c
        0x0800346a:    f7fffd1b    ....    BL       atk_8266_send_data_neat ; 0x8002ea4
        0x0800346e:    2014        .       MOVS     r0,#0x14
        0x08003470:    f7fffe84    ....    BL       delay_ms ; 0x800317c
        0x08003474:    f04f32ff    O..2    MOV      r2,#0xffffffff
        0x08003478:    a12d        -.      ADR      r1,{pc}+0xb8 ; 0x8003530
        0x0800347a:    a056        V.      ADR      r0,{pc}+0x15a ; 0x80035d4
        0x0800347c:    f7fffc2a    ..*.    BL       atk_8266_send_cmd ; 0x8002cd4
        0x08003480:    2364        d#      MOVS     r3,#0x64
        0x08003482:    a22b        +.      ADR      r2,{pc}+0xae ; 0x8003530
        0x08003484:    2111        .!      MOVS     r1,#0x11
        0x08003486:    a806        ..      ADD      r0,sp,#0x18
        0x08003488:    f7fffd0c    ....    BL       atk_8266_send_data_neat ; 0x8002ea4
        0x0800348c:    2014        .       MOVS     r0,#0x14
        0x0800348e:    f7fffe75    ..u.    BL       delay_ms ; 0x800317c
        0x08003492:    f04f32ff    O..2    MOV      r2,#0xffffffff
        0x08003496:    a126        &.      ADR      r1,{pc}+0x9a ; 0x8003530
        0x08003498:    a052        R.      ADR      r0,{pc}+0x14c ; 0x80035e4
        0x0800349a:    f7fffc1b    ....    BL       atk_8266_send_cmd ; 0x8002cd4
        0x0800349e:    2364        d#      MOVS     r3,#0x64
        0x080034a0:    a223        #.      ADR      r2,{pc}+0x90 ; 0x8003530
        0x080034a2:    2101        .!      MOVS     r1,#1
        0x080034a4:    a805        ..      ADD      r0,sp,#0x14
        0x080034a6:    f7fffcfd    ....    BL       atk_8266_send_data_neat ; 0x8002ea4
        0x080034aa:    2014        .       MOVS     r0,#0x14
        0x080034ac:    f7fffe66    ..f.    BL       delay_ms ; 0x800317c
        0x080034b0:    f04f32ff    O..2    MOV      r2,#0xffffffff
        0x080034b4:    a11e        ..      ADR      r1,{pc}+0x7c ; 0x8003530
        0x080034b6:    a04b        K.      ADR      r0,{pc}+0x12e ; 0x80035e4
        0x080034b8:    f7fffc0c    ....    BL       atk_8266_send_cmd ; 0x8002cd4
        0x080034bc:    2364        d#      MOVS     r3,#0x64
        0x080034be:    a21c        ..      ADR      r2,{pc}+0x72 ; 0x8003530
        0x080034c0:    2101        .!      MOVS     r1,#1
        0x080034c2:    a804        ..      ADD      r0,sp,#0x10
        0x080034c4:    f7fffcee    ....    BL       atk_8266_send_data_neat ; 0x8002ea4
        0x080034c8:    2005        .       MOVS     r0,#5
        0x080034ca:    f7fffe29    ..).    BL       delay ; 0x8003120
        0x080034ce:    a049        I.      ADR      r0,{pc}+0x126 ; 0x80035f4
        0x080034d0:    f7fcff08    ....    BL       __2printf ; 0x80002e4
        0x080034d4:    e780        ..      B        0x80033d8 ; main + 312
    $d
        0x080034d6:    0000        ..      DCW    0
        0x080034d8:    786f6179    yaox    DCD    2020565369
        0x080034dc:    61746575    ueta    DCD    1635018101
        0x080034e0:    2073276f    o's     DCD    544417647
        0x080034e4:    336d7473    stm3    DCD    862811251
        0x080034e8:    30316632    2f10    DCD    808543794
        0x080034ec:    00000033    3...    DCD    51
        0x080034f0:    336d7473    stm3    DCD    862811251
        0x080034f4:    30314632    2F10    DCD    808535602
        0x080034f8:    00000033    3...    DCD    51
        0x080034fc:    2073756e    nus     DCD    544437614
        0x08003500:    746e6563    cent    DCD    1953391971
        0x08003504:    206c6172    ral     DCD    543973746
        0x08003508:    7262696c    libr    DCD    1919052140
        0x0800350c:    00797261    ary.    DCD    7959137
        0x08003510:    31746864    dht1    DCD    829712484
        0x08003514:    6e692031    1 in    DCD    1852383281
        0x08003518:    66207469    it f    DCD    1713402985
        0x0800351c:    656c6961    aile    DCD    1701603681
        0x08003520:    000a0d64    d...    DCD    658788
        0x08003524:    522b5441    AT+R    DCD    1378571329
        0x08003528:    4f545345    ESTO    DCD    1330926405
        0x0800352c:    00004552    RE..    DCD    17746
        0x08003530:    00004b4f    OK..    DCD    19279
        0x08003534:    30455441    ATE0    DCD    809849921
        0x08003538:    00000000    ....    DCD    0
        0x0800353c:    432b5441    AT+C    DCD    1126913089
        0x08003540:    444f4d57    WMOD    DCD    1146047831
        0x08003544:    00313d45    E=1.    DCD    3226949
        0x08003548:    432b5441    AT+C    DCD    1126913089
        0x0800354c:    50414a57    WJAP    DCD    1346456151
        0x08003550:    5548223d    ="HU    DCD    1430790717
        0x08003554:    49455741    AWEI    DCD    1229281089
        0x08003558:    5243312d    -1CR    DCD    1380135213
        0x0800355c:    225a5032    2PZ"    DCD    576344114
        0x08003560:    3638222c    ,"86    DCD    909648428
        0x08003564:    38333434    4438    DCD    942879796
        0x08003568:    00223036    60".    DCD    2240566
        0x0800356c:    432b5441    AT+C    DCD    1126913089
        0x08003570:    54535049    IPST    DCD    1414746185
        0x08003574:    3d545241    ART=    DCD    1028936257
        0x08003578:    50435422    "TCP    DCD    1346589730
        0x0800357c:    34222c22    ","4    DCD    874654754
        0x08003580:    30312e37    7.10    DCD    808529463
        0x08003584:    37312e38    8.17    DCD    925969976
        0x08003588:    30322e30    0.20    DCD    808594992
        0x0800358c:    362c2237    7",6    DCD    908862007
        0x08003590:    00363636    666.    DCD    3552822
        0x08003594:    432b5441    AT+C    DCD    1126913089
        0x08003598:    45535049    IPSE    DCD    1163087945
        0x0800359c:    343d444e    ND=4    DCD    876430414
        0x080035a0:    00000000    ....    DCD    0
        0x080035a4:    252e6425    %d.%    DCD    623797285
        0x080035a8:    00000064    d...    DCD    100
        0x080035ac:    00006425    %d..    DCD    25637
        0x080035b0:    706d6574    temp    DCD    1886217588
        0x080035b4:    2c73253d    =%s,    DCD    745743677
        0x080035b8:    696d7568    humi    DCD    1768781160
        0x080035bc:    2c73253d    =%s,    DCD    745743677
        0x080035c0:    6867696c    ligh    DCD    1751607660
        0x080035c4:    73253d74    t=%s    DCD    1931820404
        0x080035c8:    6f6d732c    ,smo    DCD    1869443884
        0x080035cc:    253d656b    ke=%    DCD    624780651
        0x080035d0:    000a0d73    s...    DCD    658803
        0x080035d4:    432b5441    AT+C    DCD    1126913089
        0x080035d8:    45535049    IPSE    DCD    1163087945
        0x080035dc:    313d444e    ND=1    DCD    826098766
        0x080035e0:    00000037    7...    DCD    55
        0x080035e4:    432b5441    AT+C    DCD    1126913089
        0x080035e8:    45535049    IPSE    DCD    1163087945
        0x080035ec:    313d444e    ND=1    DCD    826098766
        0x080035f0:    00000000    ....    DCD    0
        0x080035f4:    7478656e    next    DCD    1954047342
        0x080035f8:    72757420     tur    DCD    1920300064
        0x080035fc:    000a0d6e    n...    DCD    658798
    $t
    i.smoke_sensor_init
    smoke_sensor_init
        0x08003600:    b508        ..      PUSH     {r3,lr}
        0x08003602:    2101        .!      MOVS     r1,#1
        0x08003604:    2040        @       MOVS     r0,#0x40
        0x08003606:    f7fefdd9    ....    BL       RCC_APB2PeriphClockCmd ; 0x80021bc
        0x0800360a:    f44f4080    O..@    MOV      r0,#0x4000
        0x0800360e:    f8ad0000    ....    STRH     r0,[sp,#0]
        0x08003612:    2028        (       MOVS     r0,#0x28
        0x08003614:    f88d0003    ....    STRB     r0,[sp,#3]
        0x08003618:    2003        .       MOVS     r0,#3
        0x0800361a:    f88d0002    ....    STRB     r0,[sp,#2]
        0x0800361e:    4669        iF      MOV      r1,sp
        0x08003620:    4801        .H      LDR      r0,[pc,#4] ; [0x8003628] = 0x40011800
        0x08003622:    f7fefca5    ....    BL       GPIO_Init ; 0x8001f70
        0x08003626:    bd08        ..      POP      {r3,pc}
    $d
        0x08003628:    40011800    ...@    DCD    1073813504
    $t
    i.u3_printf
    u3_printf
        0x0800362c:    b40f        ..      PUSH     {r0-r3}
        0x0800362e:    b538        8.      PUSH     {r3-r5,lr}
        0x08003630:    a805        ..      ADD      r0,sp,#0x14
        0x08003632:    9000        ..      STR      r0,[sp,#0]
        0x08003634:    480f        .H      LDR      r0,[pc,#60] ; [0x8003674] = 0x20001b51
        0x08003636:    9a00        ..      LDR      r2,[sp,#0]
        0x08003638:    9904        ..      LDR      r1,[sp,#0x10]
        0x0800363a:    f7fcfe41    ..A.    BL       vsprintf ; 0x80002c0
        0x0800363e:    2000        .       MOVS     r0,#0
        0x08003640:    9000        ..      STR      r0,[sp,#0]
        0x08003642:    480c        .H      LDR      r0,[pc,#48] ; [0x8003674] = 0x20001b51
        0x08003644:    f7fcffac    ....    BL       strlen ; 0x80005a0
        0x08003648:    b285        ..      UXTH     r5,r0
        0x0800364a:    2400        .$      MOVS     r4,#0
        0x0800364c:    e00d        ..      B        0x800366a ; u3_printf + 62
        0x0800364e:    bf00        ..      NOP      
        0x08003650:    2140        @!      MOVS     r1,#0x40
        0x08003652:    4809        .H      LDR      r0,[pc,#36] ; [0x8003678] = 0x40004800
        0x08003654:    f7fffa38    ..8.    BL       USART_GetFlagStatus ; 0x8002ac8
        0x08003658:    2800        .(      CMP      r0,#0
        0x0800365a:    d0f9        ..      BEQ      0x8003650 ; u3_printf + 36
        0x0800365c:    4805        .H      LDR      r0,[pc,#20] ; [0x8003674] = 0x20001b51
        0x0800365e:    5d01        .]      LDRB     r1,[r0,r4]
        0x08003660:    4805        .H      LDR      r0,[pc,#20] ; [0x8003678] = 0x40004800
        0x08003662:    f7fffafe    ....    BL       USART_SendData ; 0x8002c62
        0x08003666:    1c60        `.      ADDS     r0,r4,#1
        0x08003668:    b284        ..      UXTH     r4,r0
        0x0800366a:    42ac        .B      CMP      r4,r5
        0x0800366c:    dbef        ..      BLT      0x800364e ; u3_printf + 34
        0x0800366e:    bc38        8.      POP      {r3-r5}
        0x08003670:    f85dfb14    ]...    LDR      pc,[sp],#0x14
    $d
        0x08003674:    20001b51    Q..     DCD    536877905
        0x08003678:    40004800    .H.@    DCD    1073760256
    $t
    i.u3_printf_neat
    u3_printf_neat
        0x0800367c:    e92d41f0    -..A    PUSH     {r4-r8,lr}
        0x08003680:    4607        .F      MOV      r7,r0
        0x08003682:    460e        .F      MOV      r6,r1
        0x08003684:    2500        .%      MOVS     r5,#0
        0x08003686:    e003        ..      B        0x8003690 ; u3_printf_neat + 20
        0x08003688:    5d78        x]      LDRB     r0,[r7,r5]
        0x0800368a:    490c        .I      LDR      r1,[pc,#48] ; [0x80036bc] = 0x20001b51
        0x0800368c:    5548        HU      STRB     r0,[r1,r5]
        0x0800368e:    1c6d        m.      ADDS     r5,r5,#1
        0x08003690:    42b5        .B      CMP      r5,r6
        0x08003692:    d3f9        ..      BCC      0x8003688 ; u3_printf_neat + 12
        0x08003694:    46b0        .F      MOV      r8,r6
        0x08003696:    2400        .$      MOVS     r4,#0
        0x08003698:    e00c        ..      B        0x80036b4 ; u3_printf_neat + 56
        0x0800369a:    bf00        ..      NOP      
        0x0800369c:    2140        @!      MOVS     r1,#0x40
        0x0800369e:    4808        .H      LDR      r0,[pc,#32] ; [0x80036c0] = 0x40004800
        0x080036a0:    f7fffa12    ....    BL       USART_GetFlagStatus ; 0x8002ac8
        0x080036a4:    2800        .(      CMP      r0,#0
        0x080036a6:    d0f9        ..      BEQ      0x800369c ; u3_printf_neat + 32
        0x080036a8:    4804        .H      LDR      r0,[pc,#16] ; [0x80036bc] = 0x20001b51
        0x080036aa:    5d01        .]      LDRB     r1,[r0,r4]
        0x080036ac:    4804        .H      LDR      r0,[pc,#16] ; [0x80036c0] = 0x40004800
        0x080036ae:    f7fffad8    ....    BL       USART_SendData ; 0x8002c62
        0x080036b2:    1c64        d.      ADDS     r4,r4,#1
        0x080036b4:    4544        DE      CMP      r4,r8
        0x080036b6:    d3f0        ..      BCC      0x800369a ; u3_printf_neat + 30
        0x080036b8:    e8bd81f0    ....    POP      {r4-r8,pc}
    $d
        0x080036bc:    20001b51    Q..     DCD    536877905
        0x080036c0:    40004800    .H.@    DCD    1073760256
    $t
    i.uart_init
    uart_init
        0x080036c4:    b510        ..      PUSH     {r4,lr}
        0x080036c6:    b086        ..      SUB      sp,sp,#0x18
        0x080036c8:    4604        .F      MOV      r4,r0
        0x080036ca:    2101        .!      MOVS     r1,#1
        0x080036cc:    f2440004    D...    MOV      r0,#0x4004
        0x080036d0:    f7fefd74    ..t.    BL       RCC_APB2PeriphClockCmd ; 0x80021bc
        0x080036d4:    f44f7000    O..p    MOV      r0,#0x200
        0x080036d8:    f8ad0014    ....    STRH     r0,[sp,#0x14]
        0x080036dc:    2003        .       MOVS     r0,#3
        0x080036de:    f88d0016    ....    STRB     r0,[sp,#0x16]
        0x080036e2:    2018        .       MOVS     r0,#0x18
        0x080036e4:    f88d0017    ....    STRB     r0,[sp,#0x17]
        0x080036e8:    a905        ..      ADD      r1,sp,#0x14
        0x080036ea:    481c        .H      LDR      r0,[pc,#112] ; [0x800375c] = 0x40010800
        0x080036ec:    f7fefc40    ..@.    BL       GPIO_Init ; 0x8001f70
        0x080036f0:    f44f6080    O..`    MOV      r0,#0x400
        0x080036f4:    f8ad0014    ....    STRH     r0,[sp,#0x14]
        0x080036f8:    2004        .       MOVS     r0,#4
        0x080036fa:    f88d0017    ....    STRB     r0,[sp,#0x17]
        0x080036fe:    a905        ..      ADD      r1,sp,#0x14
        0x08003700:    4816        .H      LDR      r0,[pc,#88] ; [0x800375c] = 0x40010800
        0x08003702:    f7fefc35    ..5.    BL       GPIO_Init ; 0x8001f70
        0x08003706:    2025        %       MOVS     r0,#0x25
        0x08003708:    f88d0000    ....    STRB     r0,[sp,#0]
        0x0800370c:    2003        .       MOVS     r0,#3
        0x0800370e:    f88d0001    ....    STRB     r0,[sp,#1]
        0x08003712:    f88d0002    ....    STRB     r0,[sp,#2]
        0x08003716:    2001        .       MOVS     r0,#1
        0x08003718:    f88d0003    ....    STRB     r0,[sp,#3]
        0x0800371c:    4668        hF      MOV      r0,sp
        0x0800371e:    f7fefce9    ....    BL       NVIC_Init ; 0x80020f4
        0x08003722:    9401        ..      STR      r4,[sp,#4]
        0x08003724:    2000        .       MOVS     r0,#0
        0x08003726:    f8ad0008    ....    STRH     r0,[sp,#8]
        0x0800372a:    f8ad000a    ....    STRH     r0,[sp,#0xa]
        0x0800372e:    f8ad000c    ....    STRH     r0,[sp,#0xc]
        0x08003732:    f8ad0010    ....    STRH     r0,[sp,#0x10]
        0x08003736:    200c        .       MOVS     r0,#0xc
        0x08003738:    f8ad000e    ....    STRH     r0,[sp,#0xe]
        0x0800373c:    a901        ..      ADD      r1,sp,#4
        0x0800373e:    4808        .H      LDR      r0,[pc,#32] ; [0x8003760] = 0x40013800
        0x08003740:    f7fffa1e    ....    BL       USART_Init ; 0x8002b80
        0x08003744:    2200        ."      MOVS     r2,#0
        0x08003746:    f2405125    @.%Q    MOV      r1,#0x525
        0x0800374a:    4805        .H      LDR      r0,[pc,#20] ; [0x8003760] = 0x40013800
        0x0800374c:    f7fff9f3    ....    BL       USART_ITConfig ; 0x8002b36
        0x08003750:    2101        .!      MOVS     r1,#1
        0x08003752:    4803        .H      LDR      r0,[pc,#12] ; [0x8003760] = 0x40013800
        0x08003754:    f7fff95e    ..^.    BL       USART_Cmd ; 0x8002a14
        0x08003758:    b006        ..      ADD      sp,sp,#0x18
        0x0800375a:    bd10        ..      POP      {r4,pc}
    $d
        0x0800375c:    40010800    ...@    DCD    1073809408
        0x08003760:    40013800    .8.@    DCD    1073821696
    $t
    i.usart3_init
    usart3_init
        0x08003764:    b510        ..      PUSH     {r4,lr}
        0x08003766:    b086        ..      SUB      sp,sp,#0x18
        0x08003768:    4604        .F      MOV      r4,r0
        0x0800376a:    2101        .!      MOVS     r1,#1
        0x0800376c:    2008        .       MOVS     r0,#8
        0x0800376e:    f7fefd25    ..%.    BL       RCC_APB2PeriphClockCmd ; 0x80021bc
        0x08003772:    2101        .!      MOVS     r1,#1
        0x08003774:    0488        ..      LSLS     r0,r1,#18
        0x08003776:    f7fefd01    ....    BL       RCC_APB1PeriphClockCmd ; 0x800217c
        0x0800377a:    482a        *H      LDR      r0,[pc,#168] ; [0x8003824] = 0x40004800
        0x0800377c:    f7fff956    ..V.    BL       USART_DeInit ; 0x8002a2c
        0x08003780:    f44f6080    O..`    MOV      r0,#0x400
        0x08003784:    f8ad0010    ....    STRH     r0,[sp,#0x10]
        0x08003788:    2003        .       MOVS     r0,#3
        0x0800378a:    f88d0012    ....    STRB     r0,[sp,#0x12]
        0x0800378e:    2018        .       MOVS     r0,#0x18
        0x08003790:    f88d0013    ....    STRB     r0,[sp,#0x13]
        0x08003794:    a904        ..      ADD      r1,sp,#0x10
        0x08003796:    4824        $H      LDR      r0,[pc,#144] ; [0x8003828] = 0x40010c00
        0x08003798:    f7fefbea    ....    BL       GPIO_Init ; 0x8001f70
        0x0800379c:    f44f6000    O..`    MOV      r0,#0x800
        0x080037a0:    f8ad0010    ....    STRH     r0,[sp,#0x10]
        0x080037a4:    2004        .       MOVS     r0,#4
        0x080037a6:    f88d0013    ....    STRB     r0,[sp,#0x13]
        0x080037aa:    a904        ..      ADD      r1,sp,#0x10
        0x080037ac:    481e        .H      LDR      r0,[pc,#120] ; [0x8003828] = 0x40010c00
        0x080037ae:    f7fefbdf    ....    BL       GPIO_Init ; 0x8001f70
        0x080037b2:    9400        ..      STR      r4,[sp,#0]
        0x080037b4:    2000        .       MOVS     r0,#0
        0x080037b6:    f8ad0004    ....    STRH     r0,[sp,#4]
        0x080037ba:    f8ad0006    ....    STRH     r0,[sp,#6]
        0x080037be:    f8ad0008    ....    STRH     r0,[sp,#8]
        0x080037c2:    f8ad000c    ....    STRH     r0,[sp,#0xc]
        0x080037c6:    200c        .       MOVS     r0,#0xc
        0x080037c8:    f8ad000a    ....    STRH     r0,[sp,#0xa]
        0x080037cc:    4669        iF      MOV      r1,sp
        0x080037ce:    4815        .H      LDR      r0,[pc,#84] ; [0x8003824] = 0x40004800
        0x080037d0:    f7fff9d6    ....    BL       USART_Init ; 0x8002b80
        0x080037d4:    2101        .!      MOVS     r1,#1
        0x080037d6:    4813        .H      LDR      r0,[pc,#76] ; [0x8003824] = 0x40004800
        0x080037d8:    f7fff91c    ....    BL       USART_Cmd ; 0x8002a14
        0x080037dc:    2201        ."      MOVS     r2,#1
        0x080037de:    f2405125    @.%Q    MOV      r1,#0x525
        0x080037e2:    4810        .H      LDR      r0,[pc,#64] ; [0x8003824] = 0x40004800
        0x080037e4:    f7fff9a7    ....    BL       USART_ITConfig ; 0x8002b36
        0x080037e8:    2027        '       MOVS     r0,#0x27
        0x080037ea:    f88d0014    ....    STRB     r0,[sp,#0x14]
        0x080037ee:    2002        .       MOVS     r0,#2
        0x080037f0:    f88d0015    ....    STRB     r0,[sp,#0x15]
        0x080037f4:    2003        .       MOVS     r0,#3
        0x080037f6:    f88d0016    ....    STRB     r0,[sp,#0x16]
        0x080037fa:    2001        .       MOVS     r0,#1
        0x080037fc:    f88d0017    ....    STRB     r0,[sp,#0x17]
        0x08003800:    a805        ..      ADD      r0,sp,#0x14
        0x08003802:    f7fefc77    ..w.    BL       NVIC_Init ; 0x80020f4
        0x08003806:    f641411f    A..A    MOV      r1,#0x1c1f
        0x0800380a:    2031        1       MOVS     r0,#0x31
        0x0800380c:    f7feffa8    ....    BL       TIM7_Int_Init ; 0x8002760
        0x08003810:    2000        .       MOVS     r0,#0
        0x08003812:    4906        .I      LDR      r1,[pc,#24] ; [0x800382c] = 0x20000034
        0x08003814:    8008        ..      STRH     r0,[r1,#0]
        0x08003816:    2100        .!      MOVS     r1,#0
        0x08003818:    4805        .H      LDR      r0,[pc,#20] ; [0x8003830] = 0x40001400
        0x0800381a:    f7feffd4    ....    BL       TIM_Cmd ; 0x80027c6
        0x0800381e:    b006        ..      ADD      sp,sp,#0x18
        0x08003820:    bd10        ..      POP      {r4,pc}
    $d
        0x08003822:    0000        ..      DCW    0
        0x08003824:    40004800    .H.@    DCD    1073760256
        0x08003828:    40010c00    ...@    DCD    1073810432
        0x0800382c:    20000034    4..     DCD    536870964
        0x08003830:    40001400    ...@    DCD    1073746944
    $t
    locale$$code
    _get_lc_numeric
        0x08003834:    b510        ..      PUSH     {r4,lr}
        0x08003836:    2900        .)      CMP      r1,#0
        0x08003838:    d00a        ..      BEQ      0x8003850 ; _get_lc_numeric + 28
        0x0800383a:    7808        .x      LDRB     r0,[r1,#0]
        0x0800383c:    2800        .(      CMP      r0,#0
        0x0800383e:    d007        ..      BEQ      0x8003850 ; _get_lc_numeric + 28
        0x08003840:    4805        .H      LDR      r0,[pc,#20] ; [0x8003858] = 0x172
        0x08003842:    4478        xD      ADD      r0,r0,pc
        0x08003844:    f7fdfdd8    ....    BL       strcmp ; 0x80013f8
        0x08003848:    2800        .(      CMP      r0,#0
        0x0800384a:    d001        ..      BEQ      0x8003850 ; _get_lc_numeric + 28
        0x0800384c:    2000        .       MOVS     r0,#0
        0x0800384e:    bd10        ..      POP      {r4,pc}
        0x08003850:    4802        .H      LDR      r0,[pc,#8] ; [0x800385c] = 0x16a
        0x08003852:    4478        xD      ADD      r0,r0,pc
        0x08003854:    bd10        ..      POP      {r4,pc}
    $d
        0x08003856:    0000        ..      DCW    0
        0x08003858:    00000172    r...    DCD    370
        0x0800385c:    0000016a    j...    DCD    362
    $t
    locale$$code
    _get_lc_ctype
        0x08003860:    b510        ..      PUSH     {r4,lr}
        0x08003862:    2900        .)      CMP      r1,#0
        0x08003864:    d00a        ..      BEQ      0x800387c ; _get_lc_ctype + 28
        0x08003866:    7808        .x      LDRB     r0,[r1,#0]
        0x08003868:    2800        .(      CMP      r0,#0
        0x0800386a:    d007        ..      BEQ      0x800387c ; _get_lc_ctype + 28
        0x0800386c:    4805        .H      LDR      r0,[pc,#20] ; [0x8003884] = 0x162
        0x0800386e:    4478        xD      ADD      r0,r0,pc
        0x08003870:    f7fdfdc2    ....    BL       strcmp ; 0x80013f8
        0x08003874:    2800        .(      CMP      r0,#0
        0x08003876:    d001        ..      BEQ      0x800387c ; _get_lc_ctype + 28
        0x08003878:    2000        .       MOVS     r0,#0
        0x0800387a:    bd10        ..      POP      {r4,pc}
        0x0800387c:    4802        .H      LDR      r0,[pc,#8] ; [0x8003888] = 0x15a
        0x0800387e:    4478        xD      ADD      r0,r0,pc
        0x08003880:    bd10        ..      POP      {r4,pc}
    $d
        0x08003882:    0000        ..      DCW    0
        0x08003884:    00000162    b...    DCD    354
        0x08003888:    0000015a    Z...    DCD    346
    $t
    x$fpl$printf1
    _printf_fp_dec
        0x0800388c:    f7fdb9d4    ....    B        _printf_fp_dec_real ; 0x8000c38
    x$fpl$printf2
    _printf_fp_hex
        0x08003890:    f7fdbb08    ....    B        _printf_fp_hex_real ; 0x8000ea4
    $d.realdata
    .constdata
    maptable
    x$fpl$usenofp
    __I$use$fp
        0x08003894:    08000004    ....    DCD    134217732
        0x08003898:    00000000    ....    DCD    0
        0x0800389c:    02000000    ....    DCD    33554432
        0x080038a0:    00000100    ....    DCD    256
        0x080038a4:    00000010    ....    DCD    16
    .constdata
    initial_mbstate
        0x080038a8:    00000000    ....    DCD    0
        0x080038ac:    00000000    ....    DCD    0
    .constdata
    uc_hextab
        0x080038b0:    33323130    0123    DCD    858927408
        0x080038b4:    37363534    4567    DCD    926299444
        0x080038b8:    42413938    89AB    DCD    1111570744
        0x080038bc:    46454443    CDEF    DCD    1178944579
        0x080038c0:    00583040    @0X.    DCD    5779520
    lc_hextab
        0x080038c4:    33323130    0123    DCD    858927408
        0x080038c8:    37363534    4567    DCD    926299444
        0x080038cc:    62613938    89ab    DCD    1650538808
        0x080038d0:    66656463    cdef    DCD    1717920867
        0x080038d4:    00783040    @0x.    DCD    7876672
    .constdata
    lc_hextab
        0x080038d8:    33323130    0123    DCD    858927408
        0x080038dc:    37363534    4567    DCD    926299444
        0x080038e0:    62613938    89ab    DCD    1650538808
        0x080038e4:    66656463    cdef    DCD    1717920867
        0x080038e8:    7078        xp      DCW    28792
        0x080038ea:    00          .       DCB    0
    uc_hextab
        0x080038eb:    30          0       DCB    48
        0x080038ec:    34333231    1234    DCD    875770417
        0x080038f0:    38373635    5678    DCD    943142453
        0x080038f4:    43424139    9ABC    DCD    1128415545
        0x080038f8:    58464544    DEFX    DCD    1481000260
        0x080038fc:    00000050    P...    DCD    80
    .constdata
    tenpwrs_x
        0x08003900:    00004002    .@..    DCD    16386
        0x08003904:    a0000000    ....    DCD    2684354560
        0x08003908:    00000000    ....    DCD    0
        0x0800390c:    00004005    .@..    DCD    16389
        0x08003910:    c8000000    ....    DCD    3355443200
        0x08003914:    00000000    ....    DCD    0
        0x08003918:    0000400c    .@..    DCD    16396
        0x0800391c:    9c400000    ..@.    DCD    2621440000
        0x08003920:    00000000    ....    DCD    0
        0x08003924:    00004019    .@..    DCD    16409
        0x08003928:    bebc2000    . ..    DCD    3200000000
        0x0800392c:    00000000    ....    DCD    0
        0x08003930:    00004034    4@..    DCD    16436
        0x08003934:    8e1bc9bf    ....    DCD    2384185791
        0x08003938:    04000000    ....    DCD    67108864
    tenpwrs_i
        0x0800393c:    000040b5    .@..    DCD    16565
        0x08003940:    d0cf4b50    PK..    DCD    3503246160
        0x08003944:    cfe20766    f...    DCD    3487696742
        0x08003948:    00000001    ....    DCD    1
        0x0800394c:    0000416c    lA..    DCD    16748
        0x08003950:    aa51823e    >.Q.    DCD    2857468478
        0x08003954:    34a7eedf    ...4    DCD    883420895
        0x08003958:    00000001    ....    DCD    1
        0x0800395c:    000042d9    .B..    DCD    17113
        0x08003960:    e2a0b5dc    ....    DCD    3802183132
        0x08003964:    971f303a    :0..    DCD    2535403578
        0x08003968:    ffffffff    ....    DCD    4294967295
        0x0800396c:    000045b4    .E..    DCD    17844
        0x08003970:    c8a025fd    .%..    DCD    3365938685
        0x08003974:    4fc1a3e9    ...O    DCD    1338090473
        0x08003978:    ffffffff    ....    DCD    4294967295
        0x0800397c:    00003fff    .?..    DCD    16383
        0x08003980:    80000000    ....    DCD    2147483648
        0x08003984:    00000000    ....    DCD    0
        0x08003988:    00003fff    .?..    DCD    16383
        0x0800398c:    80000000    ....    DCD    2147483648
        0x08003990:    00000000    ....    DCD    0
    Region$$Table$$Base
        0x08003994:    08003ae0    .:..    DCD    134232800
        0x08003998:    20000000    ...     DCD    536870912
        0x0800399c:    00000058    X...    DCD    88
        0x080039a0:    0800016c    l...    DCD    134218092
        0x080039a4:    08003b38    8;..    DCD    134232888
        0x080039a8:    20000058    X..     DCD    536871000
        0x080039ac:    000038d0    .8..    DCD    14544
        0x080039b0:    08000188    ....    DCD    134218120
    locale$$data
    Region$$Table$$Limit
        0x080039b4:    0000001c    ....    DCD    28
    __lcnum_c_name
        0x080039b8:    00000043    C...    DCD    67
        0x080039bc:    fffffff8    ....    DCD    4294967288
    __lcnum_c_start
        0x080039c0:    0000000c    ....    DCD    12
        0x080039c4:    0000000e    ....    DCD    14
        0x080039c8:    0000000f    ....    DCD    15
    __lcnum_c_point
        0x080039cc:    002e        ..      DCW    46
    __lcnum_c_thousands
        0x080039ce:    00          .       DCB    0
    __lcnum_c_grouping
        0x080039cf:    00          .       DCB    0
    __lcnum_c_end
    locale$$data
        0x080039d0:    00000110    ....    DCD    272
    __lcctype_c_name
        0x080039d4:    00000043    C...    DCD    67
        0x080039d8:    fffffff8    ....    DCD    4294967288
    __lcctype_c_start
        0x080039dc:    00          .       DCB    0
    __ctype
        0x080039dd:    404040      @@@     DCB    64,64,64
        0x080039e0:    40404040    @@@@    DCD    1077952576
        0x080039e4:    41414040    @@AA    DCD    1094795328
        0x080039e8:    40414141    AAA@    DCD    1078018369
        0x080039ec:    40404040    @@@@    DCD    1077952576
        0x080039f0:    40404040    @@@@    DCD    1077952576
        0x080039f4:    40404040    @@@@    DCD    1077952576
        0x080039f8:    40404040    @@@@    DCD    1077952576
        0x080039fc:    02020540    @...    DCD    33686848
        0x08003a00:    02020202    ....    DCD    33686018
        0x08003a04:    02020202    ....    DCD    33686018
        0x08003a08:    02020202    ....    DCD    33686018
        0x08003a0c:    20202002    .       DCD    538976258
        0x08003a10:    20202020            DCD    538976288
        0x08003a14:    02202020       .    DCD    35659808
        0x08003a18:    02020202    ....    DCD    33686018
        0x08003a1c:    90900202    ....    DCD    2425356802
        0x08003a20:    90909090    ....    DCD    2425393296
        0x08003a24:    10101010    ....    DCD    269488144
        0x08003a28:    10101010    ....    DCD    269488144
        0x08003a2c:    10101010    ....    DCD    269488144
        0x08003a30:    10101010    ....    DCD    269488144
        0x08003a34:    10101010    ....    DCD    269488144
        0x08003a38:    02020202    ....    DCD    33686018
        0x08003a3c:    88880202    ....    DCD    2290614786
        0x08003a40:    88888888    ....    DCD    2290649224
        0x08003a44:    08080808    ....    DCD    134744072
        0x08003a48:    08080808    ....    DCD    134744072
        0x08003a4c:    08080808    ....    DCD    134744072
        0x08003a50:    08080808    ....    DCD    134744072
        0x08003a54:    08080808    ....    DCD    134744072
        0x08003a58:    02020202    ....    DCD    33686018
        0x08003a5c:    00000040    @...    DCD    64
        0x08003a60:    00000000    ....    DCD    0
        0x08003a64:    00000000    ....    DCD    0
        0x08003a68:    00000000    ....    DCD    0
        0x08003a6c:    00000000    ....    DCD    0
        0x08003a70:    00000000    ....    DCD    0
        0x08003a74:    00000000    ....    DCD    0
        0x08003a78:    00000000    ....    DCD    0
        0x08003a7c:    00000000    ....    DCD    0
        0x08003a80:    00000000    ....    DCD    0
        0x08003a84:    00000000    ....    DCD    0
        0x08003a88:    00000000    ....    DCD    0
        0x08003a8c:    00000000    ....    DCD    0
        0x08003a90:    00000000    ....    DCD    0
        0x08003a94:    00000000    ....    DCD    0
        0x08003a98:    00000000    ....    DCD    0
        0x08003a9c:    00000000    ....    DCD    0
        0x08003aa0:    00000000    ....    DCD    0
        0x08003aa4:    00000000    ....    DCD    0
        0x08003aa8:    00000000    ....    DCD    0
        0x08003aac:    00000000    ....    DCD    0
        0x08003ab0:    00000000    ....    DCD    0
        0x08003ab4:    00000000    ....    DCD    0
        0x08003ab8:    00000000    ....    DCD    0
        0x08003abc:    00000000    ....    DCD    0
        0x08003ac0:    00000000    ....    DCD    0
        0x08003ac4:    00000000    ....    DCD    0
        0x08003ac8:    00000000    ....    DCD    0
        0x08003acc:    00000000    ....    DCD    0
        0x08003ad0:    00000000    ....    DCD    0
        0x08003ad4:    00000000    ....    DCD    0
        0x08003ad8:    00000000    ....    DCD    0
        0x08003adc:    00000000    ....    DCD    0
    __lcctype_c_end

** Section #2 'RW_IRAM1' (SHT_PROGBITS) [SHF_ALLOC + SHF_WRITE]
    Size   : 88 bytes (alignment 4)
    Address: 0x20000000


** Section #3 'RW_IRAM1' (SHT_NOBITS) [SHF_ALLOC + SHF_WRITE]
    Size   : 14544 bytes (alignment 8)
    Address: 0x20000058


** Section #4 '.debug_abbrev' (SHT_PROGBITS)
    Size   : 1476 bytes


** Section #5 '.debug_frame' (SHT_PROGBITS)
    Size   : 4412 bytes


** Section #6 '.debug_info' (SHT_PROGBITS)
    Size   : 45412 bytes


** Section #7 '.debug_line' (SHT_PROGBITS)
    Size   : 14540 bytes


** Section #8 '.debug_loc' (SHT_PROGBITS)
    Size   : 5188 bytes


** Section #9 '.debug_macinfo' (SHT_PROGBITS)
    Size   : 258172 bytes


** Section #10 '.debug_pubnames' (SHT_PROGBITS)
    Size   : 3713 bytes


** Section #11 '.symtab' (SHT_SYMTAB)
    Size   : 14448 bytes (alignment 4)
    String table #12 '.strtab'
    Last local symbol no. 590


** Section #12 '.strtab' (SHT_STRTAB)
    Size   : 11616 bytes


** Section #13 '.note' (SHT_NOTE)
    Size   : 28 bytes (alignment 4)


** Section #14 '.comment' (SHT_PROGBITS)
    Size   : 30064 bytes


** Section #15 '.shstrtab' (SHT_STRTAB)
    Size   : 156 bytes


address     size       variable name                            type
0x20000054  0x4        sendno                                   u32

address     size       variable name                            type
0x2000004d  0x4        ADCPrescTable                            array[4] of volatile const uint8_t

address     size       variable name                            type
0x2000003d  0x10       APBAHBPrescTable                         array[16] of volatile const uint8_t

address     size       variable name                            type
0x2000003c  0x1        ov_sta                                   u8

address     size       variable name                            type
0x200003e0  0x1771     USART3_RX_BUF                            array[6001] of u8

address     size       variable name                            type
0x20000034  0x2        USART3_RX_STA                            vu16

address     size       variable name                            type
0x20001b51  0x1771     USART3_TX_BUF                            array[6001] of u8

address     size       variable name                            type
0x20000038  0x4        new_data                                 int

address     size       variable name                            type
0x20000030  0x1        TIM5CH1_CAPTURE_STA                      u8

address     size       variable name                            type
0x20000032  0x2        TIM5CH1_CAPTURE_VAL                      u16

address     size       variable name                            type
0x00000000  0xa        TIM5_ICInitStructure                     TIM_ICInitTypeDef
0x00000000  0x2        TIM5_ICInitStructure.TIM_Channel         uint16_t
0x00000002  0x2        TIM5_ICInitStructure.TIM_ICPolarity      uint16_t
0x00000004  0x2        TIM5_ICInitStructure.TIM_ICSelection     uint16_t
0x00000006  0x2        TIM5_ICInitStructure.TIM_ICPrescaler     uint16_t
0x00000008  0x2        TIM5_ICInitStructure.TIM_ICFilter        uint16_t

address     size       variable name                            type
0x20000174  0x10       CID_Tab                                  array[4] of u32

address     size       variable name                            type
0x20000164  0x10       CSD_Tab                                  array[4] of u32

address     size       variable name                            type
0x20000020  0x1        CardType                                 u8

address     size       variable name                            type
0x20000028  0x1        DeviceMode                               u8

address     size       variable name                            type
0x20000024  0x4        RCA                                      u32

address     size       variable name                            type
0x20000188  0x58       SDCardInfo                               SD_CardInfo
0x20000188  0x2c       SDCardInfo.SD_csd                        SD_CSD
0x20000188  0x1        SDCardInfo.SD_csd.CSDStruct              u8
0x20000189  0x1        SDCardInfo.SD_csd.SysSpecVersion         u8
0x2000018a  0x1        SDCardInfo.SD_csd.Reserved1              u8
0x2000018b  0x1        SDCardInfo.SD_csd.TAAC                   u8
0x2000018c  0x1        SDCardInfo.SD_csd.NSAC                   u8
0x2000018d  0x1        SDCardInfo.SD_csd.MaxBusClkFrec          u8
0x2000018e  0x2        SDCardInfo.SD_csd.CardComdClasses        u16
0x20000190  0x1        SDCardInfo.SD_csd.RdBlockLen             u8
0x20000191  0x1        SDCardInfo.SD_csd.PartBlockRead          u8
0x20000192  0x1        SDCardInfo.SD_csd.WrBlockMisalign        u8
0x20000193  0x1        SDCardInfo.SD_csd.RdBlockMisalign        u8
0x20000194  0x1        SDCardInfo.SD_csd.DSRImpl                u8
0x20000195  0x1      * SDCardInfo.SD_csd.Reserved2              u8
0x20000198  0x4        SDCardInfo.SD_csd.DeviceSize             u32
0x2000019c  0x1        SDCardInfo.SD_csd.MaxRdCurrentVDDMin     u8
0x2000019d  0x1        SDCardInfo.SD_csd.MaxRdCurrentVDDMax     u8
0x2000019e  0x1        SDCardInfo.SD_csd.MaxWrCurrentVDDMin     u8
0x2000019f  0x1        SDCardInfo.SD_csd.MaxWrCurrentVDDMax     u8
0x200001a0  0x1        SDCardInfo.SD_csd.DeviceSizeMul          u8
0x200001a1  0x1        SDCardInfo.SD_csd.EraseGrSize            u8
0x200001a2  0x1        SDCardInfo.SD_csd.EraseGrMul             u8
0x200001a3  0x1        SDCardInfo.SD_csd.WrProtectGrSize        u8
0x200001a4  0x1        SDCardInfo.SD_csd.WrProtectGrEnable      u8
0x200001a5  0x1        SDCardInfo.SD_csd.ManDeflECC             u8
0x200001a6  0x1        SDCardInfo.SD_csd.WrSpeedFact            u8
0x200001a7  0x1        SDCardInfo.SD_csd.MaxWrBlockLen          u8
0x200001a8  0x1        SDCardInfo.SD_csd.WriteBlockPaPartial    u8
0x200001a9  0x1        SDCardInfo.SD_csd.Reserved3              u8
0x200001aa  0x1        SDCardInfo.SD_csd.ContentProtectAppli    u8
0x200001ab  0x1        SDCardInfo.SD_csd.FileFormatGrouop       u8
0x200001ac  0x1        SDCardInfo.SD_csd.CopyFlag               u8
0x200001ad  0x1        SDCardInfo.SD_csd.PermWrProtect          u8
0x200001ae  0x1        SDCardInfo.SD_csd.TempWrProtect          u8
0x200001af  0x1        SDCardInfo.SD_csd.FileFormat             u8
0x200001b0  0x1        SDCardInfo.SD_csd.ECC                    u8
0x200001b1  0x1        SDCardInfo.SD_csd.CSD_CRC                u8
0x200001b2  0x1      * SDCardInfo.SD_csd.Reserved4              u8
0x200001b4  0x18       SDCardInfo.SD_cid                        SD_CID
0x200001b4  0x1      * SDCardInfo.SD_cid.ManufacturerID         u8
0x200001b6  0x2        SDCardInfo.SD_cid.OEM_AppliID            u16
0x200001b8  0x4        SDCardInfo.SD_cid.ProdName1              u32
0x200001bc  0x1        SDCardInfo.SD_cid.ProdName2              u8
0x200001bd  0x1      * SDCardInfo.SD_cid.ProdRev                u8
0x200001c0  0x4        SDCardInfo.SD_cid.ProdSN                 u32
0x200001c4  0x1      * SDCardInfo.SD_cid.Reserved1              u8
0x200001c6  0x2        SDCardInfo.SD_cid.ManufactDate           u16
0x200001c8  0x1        SDCardInfo.SD_cid.CID_CRC                u8
0x200001c9  0x1      * SDCardInfo.SD_cid.Reserved2              u8
0x200001d0  0x8        SDCardInfo.CardCapacity                  long long
0x200001d8  0x4        SDCardInfo.CardBlockSize                 u32
0x200001dc  0x2        SDCardInfo.RCA                           u16
0x200001de  0x1        SDCardInfo.CardType                      u8

address     size       variable name                            type
0x20000138  0x14       SDIO_CmdInitStructure                    SDIO_CmdInitTypeDef
0x20000138  0x4        SDIO_CmdInitStructure.SDIO_Argument      uint32_t
0x2000013c  0x4        SDIO_CmdInitStructure.SDIO_CmdIndex      uint32_t
0x20000140  0x4        SDIO_CmdInitStructure.SDIO_Response      uint32_t
0x20000144  0x4        SDIO_CmdInitStructure.SDIO_Wait          uint32_t
0x20000148  0x4        SDIO_CmdInitStructure.SDIO_CPSM          uint32_t

address     size       variable name                            type
0x200001e0  0x200      SDIO_DATA_BUFFER                         array[512] of u8

address     size       variable name                            type
0x2000014c  0x18       SDIO_DataInitStructure                   SDIO_DataInitTypeDef
0x2000014c  0x4        SDIO_DataInitStructure.SDIO_DataTimeOut  uint32_t
0x20000150  0x4        SDIO_DataInitStructure.SDIO_DataLength   uint32_t
0x20000154  0x4        SDIO_DataInitStructure.SDIO_DataBlockSize uint32_t
0x20000158  0x4        SDIO_DataInitStructure.SDIO_TransferDir  uint32_t
0x2000015c  0x4        SDIO_DataInitStructure.SDIO_TransferMode uint32_t
0x20000160  0x4        SDIO_DataInitStructure.SDIO_DPSM         uint32_t

address     size       variable name                            type
0x20000120  0x18       SDIO_InitStructure                       SDIO_InitTypeDef
0x20000120  0x4        SDIO_InitStructure.SDIO_ClockEdge        uint32_t
0x20000124  0x4        SDIO_InitStructure.SDIO_ClockBypass      uint32_t
0x20000128  0x4        SDIO_InitStructure.SDIO_ClockPowerSave   uint32_t
0x2000012c  0x4        SDIO_InitStructure.SDIO_BusWide          uint32_t
0x20000130  0x4        SDIO_InitStructure.SDIO_HardwareFlowControl uint32_t
0x20000134  0x1        SDIO_InitStructure.SDIO_ClockDiv         uint8_t

address     size       variable name                            type
0x20000029  0x1        StopCondition                            u8

address     size       variable name                            type
0x2000002b  0x1        TransferEnd                              volatile u8

address     size       variable name                            type
0x2000002a  0x1        TransferError                            volatile SD_Error

address     size       variable name                            type
0x2000002c  0x4        tempbuff                                 pointer to u32

address     size       variable name                            type
0x20000058  0xc8       USART_RX_BUF                             array[200] of u8

address     size       variable name                            type
0x2000001c  0x2        USART_RX_STA                             u16

address     size       variable name                            type
0x20000018  0x4        __stdout                                 FILE
0x20000018  0x4        __stdout.handle                          int

address     size       variable name                            type
0x20000016  0x2        fac_ms                                   u16

address     size       variable name                            type
0x20000014  0x1        fac_us                                   u8

address     size       variable name                            type
0x20000004  0x10       AHBPrescTable                            array[16] of volatile const uint8_t

address     size       variable name                            type
0x20000000  0x4        SystemCoreClock                          uint32_t

